
TMU_EventDrivenArch.elf:     file format elf32-avr

Sections:
Idx Name          Size      VMA       LMA       File off  Algn
  0 .text         00000f36  00000000  00000000  00000094  2**1
                  CONTENTS, ALLOC, LOAD, READONLY, CODE
  1 .data         0000001c  00800060  00000f36  00000fca  2**0
                  CONTENTS, ALLOC, LOAD, DATA
  2 .bss          0000003d  0080007c  0080007c  00000fe6  2**0
                  ALLOC
  3 .stab         000006cc  00000000  00000000  00000fe8  2**2
                  CONTENTS, READONLY, DEBUGGING
  4 .stabstr      00000085  00000000  00000000  000016b4  2**0
                  CONTENTS, READONLY, DEBUGGING
  5 .debug_aranges 00000100  00000000  00000000  00001740  2**3
                  CONTENTS, READONLY, DEBUGGING
  6 .debug_info   000014dd  00000000  00000000  00001840  2**0
                  CONTENTS, READONLY, DEBUGGING
  7 .debug_abbrev 00000603  00000000  00000000  00002d1d  2**0
                  CONTENTS, READONLY, DEBUGGING
  8 .debug_line   00000748  00000000  00000000  00003320  2**0
                  CONTENTS, READONLY, DEBUGGING
  9 .debug_frame  000008ec  00000000  00000000  00003a68  2**2
                  CONTENTS, READONLY, DEBUGGING
 10 .debug_str    000006e8  00000000  00000000  00004354  2**0
                  CONTENTS, READONLY, DEBUGGING
 11 .debug_loc    0000174b  00000000  00000000  00004a3c  2**0
                  CONTENTS, READONLY, DEBUGGING

Disassembly of section .text:

00000000 <__vectors>:
   0:	0c 94 2a 00 	jmp	0x54	; 0x54 <__ctors_end>
   4:	0c 94 51 01 	jmp	0x2a2	; 0x2a2 <__vector_1>
   8:	0c 94 78 01 	jmp	0x2f0	; 0x2f0 <__vector_2>
   c:	0c 94 9f 01 	jmp	0x33e	; 0x33e <__vector_3>
  10:	0c 94 c6 01 	jmp	0x38c	; 0x38c <__vector_4>
  14:	0c 94 ed 01 	jmp	0x3da	; 0x3da <__vector_5>
  18:	0c 94 14 02 	jmp	0x428	; 0x428 <__vector_6>
  1c:	0c 94 3b 02 	jmp	0x476	; 0x476 <__vector_7>
  20:	0c 94 62 02 	jmp	0x4c4	; 0x4c4 <__vector_8>
  24:	0c 94 89 02 	jmp	0x512	; 0x512 <__vector_9>
  28:	0c 94 b0 02 	jmp	0x560	; 0x560 <__vector_10>
  2c:	0c 94 d7 02 	jmp	0x5ae	; 0x5ae <__vector_11>
  30:	0c 94 fe 02 	jmp	0x5fc	; 0x5fc <__vector_12>
  34:	0c 94 25 03 	jmp	0x64a	; 0x64a <__vector_13>
  38:	0c 94 4c 03 	jmp	0x698	; 0x698 <__vector_14>
  3c:	0c 94 73 03 	jmp	0x6e6	; 0x6e6 <__vector_15>
  40:	0c 94 9a 03 	jmp	0x734	; 0x734 <__vector_16>
  44:	0c 94 c1 03 	jmp	0x782	; 0x782 <__vector_17>
  48:	0c 94 e8 03 	jmp	0x7d0	; 0x7d0 <__vector_18>
  4c:	0c 94 0f 04 	jmp	0x81e	; 0x81e <__vector_19>
  50:	0c 94 36 04 	jmp	0x86c	; 0x86c <__vector_20>

00000054 <__ctors_end>:
  54:	11 24       	eor	r1, r1
  56:	1f be       	out	0x3f, r1	; 63
  58:	cf e5       	ldi	r28, 0x5F	; 95
  5a:	d8 e0       	ldi	r29, 0x08	; 8
  5c:	de bf       	out	0x3e, r29	; 62
  5e:	cd bf       	out	0x3d, r28	; 61

00000060 <__do_copy_data>:
  60:	10 e0       	ldi	r17, 0x00	; 0
  62:	a0 e6       	ldi	r26, 0x60	; 96
  64:	b0 e0       	ldi	r27, 0x00	; 0
  66:	e6 e3       	ldi	r30, 0x36	; 54
  68:	ff e0       	ldi	r31, 0x0F	; 15
  6a:	02 c0       	rjmp	.+4      	; 0x70 <__do_copy_data+0x10>
  6c:	05 90       	lpm	r0, Z+
  6e:	0d 92       	st	X+, r0
  70:	ac 37       	cpi	r26, 0x7C	; 124
  72:	b1 07       	cpc	r27, r17
  74:	d9 f7       	brne	.-10     	; 0x6c <__do_copy_data+0xc>

00000076 <__do_clear_bss>:
  76:	10 e0       	ldi	r17, 0x00	; 0
  78:	ac e7       	ldi	r26, 0x7C	; 124
  7a:	b0 e0       	ldi	r27, 0x00	; 0
  7c:	01 c0       	rjmp	.+2      	; 0x80 <.do_clear_bss_start>

0000007e <.do_clear_bss_loop>:
  7e:	1d 92       	st	X+, r1

00000080 <.do_clear_bss_start>:
  80:	a9 3b       	cpi	r26, 0xB9	; 185
  82:	b1 07       	cpc	r27, r17
  84:	e1 f7       	brne	.-8      	; 0x7e <.do_clear_bss_loop>
  86:	0e 94 5d 04 	call	0x8ba	; 0x8ba <main>
  8a:	0c 94 99 07 	jmp	0xf32	; 0xf32 <_exit>

0000008e <__bad_interrupt>:
  8e:	0c 94 00 00 	jmp	0	; 0x0 <__vectors>

00000092 <DIO_init>:
*Description: This function can set the direction of a full port, a nibble
* 			  or even one pin.
*/

ERROR_STATUS DIO_init (DIO_Cfg_s *DIO_info)
{	uint8_t RET=0;
  92:	fc 01       	movw	r30, r24
		switch(DIO_info->dir)
  94:	82 81       	ldd	r24, Z+2	; 0x02
  96:	88 23       	and	r24, r24
  98:	21 f0       	breq	.+8      	; 0xa2 <DIO_init+0x10>
  9a:	8f 3f       	cpi	r24, 0xFF	; 255
  9c:	09 f0       	breq	.+2      	; 0xa0 <DIO_init+0xe>
  9e:	4a c0       	rjmp	.+148    	; 0x134 <DIO_init+0xa2>
  a0:	27 c0       	rjmp	.+78     	; 0xf0 <DIO_init+0x5e>
			{	
		case INPUT:
		     	switch(DIO_info ->GPIO)
  a2:	80 81       	ld	r24, Z
  a4:	81 30       	cpi	r24, 0x01	; 1
  a6:	79 f0       	breq	.+30     	; 0xc6 <DIO_init+0x34>
  a8:	81 30       	cpi	r24, 0x01	; 1
  aa:	30 f0       	brcs	.+12     	; 0xb8 <DIO_init+0x26>
  ac:	82 30       	cpi	r24, 0x02	; 2
  ae:	91 f0       	breq	.+36     	; 0xd4 <DIO_init+0x42>
  b0:	83 30       	cpi	r24, 0x03	; 3
  b2:	09 f0       	breq	.+2      	; 0xb6 <DIO_init+0x24>
  b4:	41 c0       	rjmp	.+130    	; 0x138 <DIO_init+0xa6>
  b6:	15 c0       	rjmp	.+42     	; 0xe2 <DIO_init+0x50>
		 		{
					case GPIOA:
						PORTA_DIR &=(~(DIO_info->pins))	;
  b8:	9a b3       	in	r25, 0x1a	; 26
  ba:	81 81       	ldd	r24, Z+1	; 0x01
  bc:	80 95       	com	r24
  be:	89 23       	and	r24, r25
  c0:	8a bb       	out	0x1a, r24	; 26
					case GPIOD:
					PORTD_DIR &=(~(DIO_info->pins))	;
					break;
					RET=E_OK;
				}
				RET=E_OK;
  c2:	80 e0       	ldi	r24, 0x00	; 0
		case INPUT:
		     	switch(DIO_info ->GPIO)
		 		{
					case GPIOA:
						PORTA_DIR &=(~(DIO_info->pins))	;
					break;
  c4:	08 95       	ret
					case GPIOB:
					PORTB_DIR &=(~(DIO_info->pins))	;
  c6:	97 b3       	in	r25, 0x17	; 23
  c8:	81 81       	ldd	r24, Z+1	; 0x01
  ca:	80 95       	com	r24
  cc:	89 23       	and	r24, r25
  ce:	87 bb       	out	0x17, r24	; 23
					case GPIOD:
					PORTD_DIR &=(~(DIO_info->pins))	;
					break;
					RET=E_OK;
				}
				RET=E_OK;
  d0:	80 e0       	ldi	r24, 0x00	; 0
					case GPIOA:
						PORTA_DIR &=(~(DIO_info->pins))	;
					break;
					case GPIOB:
					PORTB_DIR &=(~(DIO_info->pins))	;
					break;
  d2:	08 95       	ret
					case GPIOC:
					PORTC_DIR &=(~(DIO_info->pins))	;
  d4:	94 b3       	in	r25, 0x14	; 20
  d6:	81 81       	ldd	r24, Z+1	; 0x01
  d8:	80 95       	com	r24
  da:	89 23       	and	r24, r25
  dc:	84 bb       	out	0x14, r24	; 20
					case GPIOD:
					PORTD_DIR &=(~(DIO_info->pins))	;
					break;
					RET=E_OK;
				}
				RET=E_OK;
  de:	80 e0       	ldi	r24, 0x00	; 0
					case GPIOB:
					PORTB_DIR &=(~(DIO_info->pins))	;
					break;
					case GPIOC:
					PORTC_DIR &=(~(DIO_info->pins))	;
					break;
  e0:	08 95       	ret
					case GPIOD:
					PORTD_DIR &=(~(DIO_info->pins))	;
  e2:	91 b3       	in	r25, 0x11	; 17
  e4:	81 81       	ldd	r24, Z+1	; 0x01
  e6:	80 95       	com	r24
  e8:	89 23       	and	r24, r25
  ea:	81 bb       	out	0x11, r24	; 17
					break;
					RET=E_OK;
				}
				RET=E_OK;
  ec:	80 e0       	ldi	r24, 0x00	; 0
					case GPIOC:
					PORTC_DIR &=(~(DIO_info->pins))	;
					break;
					case GPIOD:
					PORTD_DIR &=(~(DIO_info->pins))	;
					break;
  ee:	08 95       	ret
				}
				RET=E_OK;
				break;

		case OUTPUT:
			  switch(DIO_info ->GPIO)
  f0:	80 81       	ld	r24, Z
  f2:	81 30       	cpi	r24, 0x01	; 1
  f4:	69 f0       	breq	.+26     	; 0x110 <DIO_init+0x7e>
  f6:	81 30       	cpi	r24, 0x01	; 1
  f8:	28 f0       	brcs	.+10     	; 0x104 <DIO_init+0x72>
  fa:	82 30       	cpi	r24, 0x02	; 2
  fc:	79 f0       	breq	.+30     	; 0x11c <DIO_init+0x8a>
  fe:	83 30       	cpi	r24, 0x03	; 3
 100:	e9 f4       	brne	.+58     	; 0x13c <DIO_init+0xaa>
 102:	12 c0       	rjmp	.+36     	; 0x128 <DIO_init+0x96>
			  {
				  case GPIOA:
				  PORTA_DIR |=(DIO_info->pins)	;
 104:	9a b3       	in	r25, 0x1a	; 26
 106:	81 81       	ldd	r24, Z+1	; 0x01
 108:	89 2b       	or	r24, r25
 10a:	8a bb       	out	0x1a, r24	; 26
				  case GPIOD:
				  PORTD_DIR |=(DIO_info->pins)	;
				  break;
				  RET=E_OK;
			  }
			  RET=E_OK;
 10c:	80 e0       	ldi	r24, 0x00	; 0
		case OUTPUT:
			  switch(DIO_info ->GPIO)
			  {
				  case GPIOA:
				  PORTA_DIR |=(DIO_info->pins)	;
				  break;
 10e:	08 95       	ret
				  case GPIOB:
				  PORTB_DIR |=(DIO_info->pins)	;
 110:	97 b3       	in	r25, 0x17	; 23
 112:	81 81       	ldd	r24, Z+1	; 0x01
 114:	89 2b       	or	r24, r25
 116:	87 bb       	out	0x17, r24	; 23
				  case GPIOD:
				  PORTD_DIR |=(DIO_info->pins)	;
				  break;
				  RET=E_OK;
			  }
			  RET=E_OK;
 118:	80 e0       	ldi	r24, 0x00	; 0
				  case GPIOA:
				  PORTA_DIR |=(DIO_info->pins)	;
				  break;
				  case GPIOB:
				  PORTB_DIR |=(DIO_info->pins)	;
				  break;
 11a:	08 95       	ret
				  case GPIOC:
				  PORTC_DIR |=(DIO_info->pins)	;
 11c:	94 b3       	in	r25, 0x14	; 20
 11e:	81 81       	ldd	r24, Z+1	; 0x01
 120:	89 2b       	or	r24, r25
 122:	84 bb       	out	0x14, r24	; 20
				  case GPIOD:
				  PORTD_DIR |=(DIO_info->pins)	;
				  break;
				  RET=E_OK;
			  }
			  RET=E_OK;
 124:	80 e0       	ldi	r24, 0x00	; 0
				  case GPIOB:
				  PORTB_DIR |=(DIO_info->pins)	;
				  break;
				  case GPIOC:
				  PORTC_DIR |=(DIO_info->pins)	;
				  break;
 126:	08 95       	ret
				  case GPIOD:
				  PORTD_DIR |=(DIO_info->pins)	;
 128:	91 b3       	in	r25, 0x11	; 17
 12a:	81 81       	ldd	r24, Z+1	; 0x01
 12c:	89 2b       	or	r24, r25
 12e:	81 bb       	out	0x11, r24	; 17
				  break;
				  RET=E_OK;
			  }
			  RET=E_OK;
 130:	80 e0       	ldi	r24, 0x00	; 0
				  case GPIOC:
				  PORTC_DIR |=(DIO_info->pins)	;
				  break;
				  case GPIOD:
				  PORTD_DIR |=(DIO_info->pins)	;
				  break;
 132:	08 95       	ret
			  }
			  RET=E_OK;
			  break;

			default:
			RET=E_NOK;
 134:	81 e0       	ldi	r24, 0x01	; 1
 136:	08 95       	ret
					case GPIOD:
					PORTD_DIR &=(~(DIO_info->pins))	;
					break;
					RET=E_OK;
				}
				RET=E_OK;
 138:	80 e0       	ldi	r24, 0x00	; 0
 13a:	08 95       	ret
				  case GPIOD:
				  PORTD_DIR |=(DIO_info->pins)	;
				  break;
				  RET=E_OK;
			  }
			  RET=E_OK;
 13c:	80 e0       	ldi	r24, 0x00	; 0

			default:
			RET=E_NOK;
	}
return RET;
}
 13e:	08 95       	ret

00000140 <DIO_Write>:

ERROR_STATUS DIO_Write (uint8_t GPIO, uint8_t pins, uint8_t value)
{uint8_t Ret=0;
switch(value){
 140:	44 23       	and	r20, r20
 142:	21 f0       	breq	.+8      	; 0x14c <DIO_Write+0xc>
 144:	4f 3f       	cpi	r20, 0xFF	; 255
 146:	09 f0       	breq	.+2      	; 0x14a <DIO_Write+0xa>
 148:	3f c0       	rjmp	.+126    	; 0x1c8 <DIO_Write+0x88>
 14a:	21 c0       	rjmp	.+66     	; 0x18e <DIO_Write+0x4e>
case LOW:
{
switch (GPIO)
 14c:	81 30       	cpi	r24, 0x01	; 1
 14e:	69 f0       	breq	.+26     	; 0x16a <DIO_Write+0x2a>
 150:	81 30       	cpi	r24, 0x01	; 1
 152:	28 f0       	brcs	.+10     	; 0x15e <DIO_Write+0x1e>
 154:	82 30       	cpi	r24, 0x02	; 2
 156:	79 f0       	breq	.+30     	; 0x176 <DIO_Write+0x36>
 158:	83 30       	cpi	r24, 0x03	; 3
 15a:	c1 f5       	brne	.+112    	; 0x1cc <DIO_Write+0x8c>
 15c:	12 c0       	rjmp	.+36     	; 0x182 <DIO_Write+0x42>
{	case GPIOA:
	PORTA_DATA &= ~(pins);   // 0b01111111
 15e:	8b b3       	in	r24, 0x1b	; 27
 160:	60 95       	com	r22
 162:	68 23       	and	r22, r24
 164:	6b bb       	out	0x1b, r22	; 27
	break;
	default:
	Ret=E_NOK;
	break;
	}
Ret=E_OK;
 166:	80 e0       	ldi	r24, 0x00	; 0
{
switch (GPIO)
{	case GPIOA:
	PORTA_DATA &= ~(pins);   // 0b01111111
Ret=E_OK;
	break;
 168:	08 95       	ret
	case GPIOB:
	PORTB_DATA &= ~(pins);
 16a:	88 b3       	in	r24, 0x18	; 24
 16c:	60 95       	com	r22
 16e:	68 23       	and	r22, r24
 170:	68 bb       	out	0x18, r22	; 24
	break;
	default:
	Ret=E_NOK;
	break;
	}
Ret=E_OK;
 172:	80 e0       	ldi	r24, 0x00	; 0
Ret=E_OK;
	break;
	case GPIOB:
	PORTB_DATA &= ~(pins);
Ret=E_OK;
	break;
 174:	08 95       	ret
	case GPIOC:
	PORTC_DATA &= ~(pins);
 176:	85 b3       	in	r24, 0x15	; 21
 178:	60 95       	com	r22
 17a:	68 23       	and	r22, r24
 17c:	65 bb       	out	0x15, r22	; 21
	break;
	default:
	Ret=E_NOK;
	break;
	}
Ret=E_OK;
 17e:	80 e0       	ldi	r24, 0x00	; 0
Ret=E_OK;
	break;
	case GPIOC:
	PORTC_DATA &= ~(pins);
Ret=E_OK;
	break;
 180:	08 95       	ret
	case GPIOD:
	PORTD_DATA &= ~(pins);
 182:	82 b3       	in	r24, 0x12	; 18
 184:	60 95       	com	r22
 186:	68 23       	and	r22, r24
 188:	62 bb       	out	0x12, r22	; 18
	break;
	default:
	Ret=E_NOK;
	break;
	}
Ret=E_OK;
 18a:	80 e0       	ldi	r24, 0x00	; 0
Ret=E_OK;
	break;
	case GPIOD:
	PORTD_DATA &= ~(pins);
	Ret=E_OK;
	break;
 18c:	08 95       	ret
	}
Ret=E_OK;
break;
}
case HIGH:{
switch (GPIO)
 18e:	81 30       	cpi	r24, 0x01	; 1
 190:	61 f0       	breq	.+24     	; 0x1aa <DIO_Write+0x6a>
 192:	81 30       	cpi	r24, 0x01	; 1
 194:	28 f0       	brcs	.+10     	; 0x1a0 <DIO_Write+0x60>
 196:	82 30       	cpi	r24, 0x02	; 2
 198:	69 f0       	breq	.+26     	; 0x1b4 <DIO_Write+0x74>
 19a:	83 30       	cpi	r24, 0x03	; 3
 19c:	c9 f4       	brne	.+50     	; 0x1d0 <DIO_Write+0x90>
 19e:	0f c0       	rjmp	.+30     	; 0x1be <DIO_Write+0x7e>
{	case GPIOA:
	PORTA_DATA |=(pins);
 1a0:	8b b3       	in	r24, 0x1b	; 27
 1a2:	68 2b       	or	r22, r24
 1a4:	6b bb       	out	0x1b, r22	; 27
	break;
	default:
	Ret=E_NOK;
	break;
}
Ret=E_OK;
 1a6:	80 e0       	ldi	r24, 0x00	; 0
case HIGH:{
switch (GPIO)
{	case GPIOA:
	PORTA_DATA |=(pins);
Ret=E_OK;
	break;
 1a8:	08 95       	ret
	case GPIOB:
	PORTB_DATA |=(pins);
 1aa:	88 b3       	in	r24, 0x18	; 24
 1ac:	68 2b       	or	r22, r24
 1ae:	68 bb       	out	0x18, r22	; 24
	break;
	default:
	Ret=E_NOK;
	break;
}
Ret=E_OK;
 1b0:	80 e0       	ldi	r24, 0x00	; 0
Ret=E_OK;
	break;
	case GPIOB:
	PORTB_DATA |=(pins);
Ret=E_OK;
	break;
 1b2:	08 95       	ret
	case GPIOC:
	PORTC_DATA |=(pins);
 1b4:	85 b3       	in	r24, 0x15	; 21
 1b6:	68 2b       	or	r22, r24
 1b8:	65 bb       	out	0x15, r22	; 21
	break;
	default:
	Ret=E_NOK;
	break;
}
Ret=E_OK;
 1ba:	80 e0       	ldi	r24, 0x00	; 0
Ret=E_OK;
	break;
	case GPIOC:
	PORTC_DATA |=(pins);
Ret=E_OK;
	break;
 1bc:	08 95       	ret
	case GPIOD:
	PORTD_DATA |=(pins);
 1be:	82 b3       	in	r24, 0x12	; 18
 1c0:	68 2b       	or	r22, r24
 1c2:	62 bb       	out	0x12, r22	; 18
	break;
	default:
	Ret=E_NOK;
	break;
}
Ret=E_OK;
 1c4:	80 e0       	ldi	r24, 0x00	; 0
Ret=E_OK;
	break;
	case GPIOD:
	PORTD_DATA |=(pins);
Ret=E_OK;
	break;
 1c6:	08 95       	ret
}
Ret=E_OK;
break;
}
default:
Ret=E_NOK;
 1c8:	81 e0       	ldi	r24, 0x01	; 1
 1ca:	08 95       	ret
	break;
	default:
	Ret=E_NOK;
	break;
	}
Ret=E_OK;
 1cc:	80 e0       	ldi	r24, 0x00	; 0
 1ce:	08 95       	ret
	break;
	default:
	Ret=E_NOK;
	break;
}
Ret=E_OK;
 1d0:	80 e0       	ldi	r24, 0x00	; 0
default:
Ret=E_NOK;
break;
}
return Ret;
}
 1d2:	08 95       	ret

000001d4 <DIO_Read>:


ERROR_STATUS DIO_Read (uint8_t GPIO,uint8_t pins, uint8_t *data)
{
 1d4:	fa 01       	movw	r30, r20

switch (GPIO)
 1d6:	81 30       	cpi	r24, 0x01	; 1
 1d8:	59 f0       	breq	.+22     	; 0x1f0 <DIO_Read+0x1c>
 1da:	81 30       	cpi	r24, 0x01	; 1
 1dc:	28 f0       	brcs	.+10     	; 0x1e8 <DIO_Read+0x14>
 1de:	82 30       	cpi	r24, 0x02	; 2
 1e0:	59 f0       	breq	.+22     	; 0x1f8 <DIO_Read+0x24>
 1e2:	83 30       	cpi	r24, 0x03	; 3
 1e4:	81 f4       	brne	.+32     	; 0x206 <DIO_Read+0x32>
 1e6:	0c c0       	rjmp	.+24     	; 0x200 <DIO_Read+0x2c>
{	case GPIOA:
	*data=(PORTA_PIN & pins);
 1e8:	89 b3       	in	r24, 0x19	; 25
 1ea:	68 23       	and	r22, r24
 1ec:	60 83       	st	Z, r22
	break;
 1ee:	0b c0       	rjmp	.+22     	; 0x206 <DIO_Read+0x32>
	case GPIOB:
	*data=(PORTB_PIN & pins);
 1f0:	86 b3       	in	r24, 0x16	; 22
 1f2:	68 23       	and	r22, r24
 1f4:	60 83       	st	Z, r22
	break;
 1f6:	07 c0       	rjmp	.+14     	; 0x206 <DIO_Read+0x32>
	case GPIOC:
	*data=(PORTC_PIN & pins);
 1f8:	83 b3       	in	r24, 0x13	; 19
 1fa:	68 23       	and	r22, r24
 1fc:	60 83       	st	Z, r22
	break;
 1fe:	03 c0       	rjmp	.+6      	; 0x206 <DIO_Read+0x32>
	case GPIOD:
	*data=(PORTD_PIN & pins);
 200:	80 b3       	in	r24, 0x10	; 16
 202:	68 23       	and	r22, r24
 204:	60 83       	st	Z, r22
	break;
}
if(*data > 0)
 206:	80 81       	ld	r24, Z
 208:	88 23       	and	r24, r24
 20a:	11 f0       	breq	.+4      	; 0x210 <DIO_Read+0x3c>
{
	*data = 1;
 20c:	81 e0       	ldi	r24, 0x01	; 1
 20e:	80 83       	st	Z, r24
}


}
 210:	08 95       	ret

00000212 <DIO_Toggle>:
ERROR_STATUS DIO_Toggle (uint8_t GPIO, uint8_t pins)
{
uint8_t ret=0;
	switch (GPIO)
 212:	81 30       	cpi	r24, 0x01	; 1
 214:	61 f0       	breq	.+24     	; 0x22e <DIO_Toggle+0x1c>
 216:	81 30       	cpi	r24, 0x01	; 1
 218:	28 f0       	brcs	.+10     	; 0x224 <DIO_Toggle+0x12>
 21a:	82 30       	cpi	r24, 0x02	; 2
 21c:	69 f0       	breq	.+26     	; 0x238 <DIO_Toggle+0x26>
 21e:	83 30       	cpi	r24, 0x03	; 3
 220:	a9 f4       	brne	.+42     	; 0x24c <DIO_Toggle+0x3a>
 222:	0f c0       	rjmp	.+30     	; 0x242 <DIO_Toggle+0x30>
	{	case GPIOA:
		PORTA_DATA ^=(pins);
 224:	8b b3       	in	r24, 0x1b	; 27
 226:	68 27       	eor	r22, r24
 228:	6b bb       	out	0x1b, r22	; 27
		ret=E_OK;
 22a:	80 e0       	ldi	r24, 0x00	; 0
		break;
 22c:	08 95       	ret
		case GPIOB:
		PORTB_DATA ^=(pins);
 22e:	88 b3       	in	r24, 0x18	; 24
 230:	68 27       	eor	r22, r24
 232:	68 bb       	out	0x18, r22	; 24
ret=E_OK;
 234:	80 e0       	ldi	r24, 0x00	; 0
		break;
 236:	08 95       	ret
		case GPIOC:
		PORTC_DATA ^=(pins);
 238:	85 b3       	in	r24, 0x15	; 21
 23a:	68 27       	eor	r22, r24
 23c:	65 bb       	out	0x15, r22	; 21
ret=E_OK;
 23e:	80 e0       	ldi	r24, 0x00	; 0
		break;
 240:	08 95       	ret
		case GPIOD:
		PORTD_DATA ^=(pins);
 242:	82 b3       	in	r24, 0x12	; 18
 244:	68 27       	eor	r22, r24
 246:	62 bb       	out	0x12, r22	; 18
ret=E_OK;
 248:	80 e0       	ldi	r24, 0x00	; 0
		break;
 24a:	08 95       	ret
		default:
		ret=E_NOK;
 24c:	81 e0       	ldi	r24, 0x01	; 1
		break;
	}

return ret;
}
 24e:	08 95       	ret

00000250 <G_interrupt_Enable>:
ptr_to_Fun TWI_I2C;
ptr_to_Fun SPM_RDY;

void G_interrupt_Enable(void)
{
 SREG |=(0x80);
 250:	8f b7       	in	r24, 0x3f	; 63
 252:	80 68       	ori	r24, 0x80	; 128
 254:	8f bf       	out	0x3f, r24	; 63
}
 256:	08 95       	ret

00000258 <EX_interrupt_enable2>:
void EX_interrupt_enable2(void)
{
CLEAR_BIT(PORTB_DIR,2);/*Input*/
 258:	ba 98       	cbi	0x17, 2	; 23
SET_BIT(PORTB_DATA,2);/*Pullup*/
 25a:	c2 9a       	sbi	0x18, 2	; 24
SET_BIT(GICR,INT2);/*EXT2*/
 25c:	8b b7       	in	r24, 0x3b	; 59
 25e:	80 62       	ori	r24, 0x20	; 32
 260:	8b bf       	out	0x3b, r24	; 59
SET_BIT(MCUCSR,6);/*Rising*/
 262:	84 b7       	in	r24, 0x34	; 52
 264:	80 64       	ori	r24, 0x40	; 64
 266:	84 bf       	out	0x34, r24	; 52
}
 268:	08 95       	ret

0000026a <EX_interrupt_enable1>:
void EX_interrupt_enable1(void)
{
	CLEAR_BIT(PORTD_DIR,3);
 26a:	8b 98       	cbi	0x11, 3	; 17
	SET_BIT(PORTD_DATA,3);
 26c:	93 9a       	sbi	0x12, 3	; 18
	SET_BIT(GICR,INT1);
 26e:	8b b7       	in	r24, 0x3b	; 59
 270:	80 68       	ori	r24, 0x80	; 128
 272:	8b bf       	out	0x3b, r24	; 59
	SET_BIT(MCUCR,2);/*Any logical change*/
 274:	85 b7       	in	r24, 0x35	; 53
 276:	84 60       	ori	r24, 0x04	; 4
 278:	85 bf       	out	0x35, r24	; 53
	CLEAR_BIT(MCUCR,3);
 27a:	85 b7       	in	r24, 0x35	; 53
 27c:	87 7f       	andi	r24, 0xF7	; 247
 27e:	85 bf       	out	0x35, r24	; 53
	
}
 280:	08 95       	ret

00000282 <EX_interrupt_enable0>:
void EX_interrupt_enable0(void)
{
	CLEAR_BIT(PORTD_DIR,2);
 282:	8a 98       	cbi	0x11, 2	; 17
	SET_BIT(PORTD_DATA,2);
 284:	92 9a       	sbi	0x12, 2	; 18
	SET_BIT(GICR,INT0);
 286:	8b b7       	in	r24, 0x3b	; 59
 288:	80 64       	ori	r24, 0x40	; 64
 28a:	8b bf       	out	0x3b, r24	; 59
	SET_BIT(MCUCR,0);/*Any logical change*/
 28c:	85 b7       	in	r24, 0x35	; 53
 28e:	81 60       	ori	r24, 0x01	; 1
 290:	85 bf       	out	0x35, r24	; 53
	CLEAR_BIT(MCUCR,1);
 292:	85 b7       	in	r24, 0x35	; 53
 294:	8d 7f       	andi	r24, 0xFD	; 253
 296:	85 bf       	out	0x35, r24	; 53
	
}
 298:	08 95       	ret

0000029a <G_interrupt_Disable>:
void G_interrupt_Disable(void)
{
CLEAR_BIT(SREG,7);
 29a:	8f b7       	in	r24, 0x3f	; 63
 29c:	8f 77       	andi	r24, 0x7F	; 127
 29e:	8f bf       	out	0x3f, r24	; 63
}
 2a0:	08 95       	ret

000002a2 <__vector_1>:
void __vector_1(void) __attribute__((signal));
void __vector_1(void)
{
 2a2:	1f 92       	push	r1
 2a4:	0f 92       	push	r0
 2a6:	0f b6       	in	r0, 0x3f	; 63
 2a8:	0f 92       	push	r0
 2aa:	11 24       	eor	r1, r1
 2ac:	2f 93       	push	r18
 2ae:	3f 93       	push	r19
 2b0:	4f 93       	push	r20
 2b2:	5f 93       	push	r21
 2b4:	6f 93       	push	r22
 2b6:	7f 93       	push	r23
 2b8:	8f 93       	push	r24
 2ba:	9f 93       	push	r25
 2bc:	af 93       	push	r26
 2be:	bf 93       	push	r27
 2c0:	ef 93       	push	r30
 2c2:	ff 93       	push	r31
  INT0_external_interrupt();
 2c4:	e0 91 97 00 	lds	r30, 0x0097
 2c8:	f0 91 98 00 	lds	r31, 0x0098
 2cc:	09 95       	icall
}
 2ce:	ff 91       	pop	r31
 2d0:	ef 91       	pop	r30
 2d2:	bf 91       	pop	r27
 2d4:	af 91       	pop	r26
 2d6:	9f 91       	pop	r25
 2d8:	8f 91       	pop	r24
 2da:	7f 91       	pop	r23
 2dc:	6f 91       	pop	r22
 2de:	5f 91       	pop	r21
 2e0:	4f 91       	pop	r20
 2e2:	3f 91       	pop	r19
 2e4:	2f 91       	pop	r18
 2e6:	0f 90       	pop	r0
 2e8:	0f be       	out	0x3f, r0	; 63
 2ea:	0f 90       	pop	r0
 2ec:	1f 90       	pop	r1
 2ee:	18 95       	reti

000002f0 <__vector_2>:


void __vector_2(void) __attribute__((signal));
void __vector_2(void)
{
 2f0:	1f 92       	push	r1
 2f2:	0f 92       	push	r0
 2f4:	0f b6       	in	r0, 0x3f	; 63
 2f6:	0f 92       	push	r0
 2f8:	11 24       	eor	r1, r1
 2fa:	2f 93       	push	r18
 2fc:	3f 93       	push	r19
 2fe:	4f 93       	push	r20
 300:	5f 93       	push	r21
 302:	6f 93       	push	r22
 304:	7f 93       	push	r23
 306:	8f 93       	push	r24
 308:	9f 93       	push	r25
 30a:	af 93       	push	r26
 30c:	bf 93       	push	r27
 30e:	ef 93       	push	r30
 310:	ff 93       	push	r31
  INT1_external_interrupt();
 312:	e0 91 9f 00 	lds	r30, 0x009F
 316:	f0 91 a0 00 	lds	r31, 0x00A0
 31a:	09 95       	icall
}
 31c:	ff 91       	pop	r31
 31e:	ef 91       	pop	r30
 320:	bf 91       	pop	r27
 322:	af 91       	pop	r26
 324:	9f 91       	pop	r25
 326:	8f 91       	pop	r24
 328:	7f 91       	pop	r23
 32a:	6f 91       	pop	r22
 32c:	5f 91       	pop	r21
 32e:	4f 91       	pop	r20
 330:	3f 91       	pop	r19
 332:	2f 91       	pop	r18
 334:	0f 90       	pop	r0
 336:	0f be       	out	0x3f, r0	; 63
 338:	0f 90       	pop	r0
 33a:	1f 90       	pop	r1
 33c:	18 95       	reti

0000033e <__vector_3>:


void __vector_3(void) __attribute__((signal));
void __vector_3(void)
{
 33e:	1f 92       	push	r1
 340:	0f 92       	push	r0
 342:	0f b6       	in	r0, 0x3f	; 63
 344:	0f 92       	push	r0
 346:	11 24       	eor	r1, r1
 348:	2f 93       	push	r18
 34a:	3f 93       	push	r19
 34c:	4f 93       	push	r20
 34e:	5f 93       	push	r21
 350:	6f 93       	push	r22
 352:	7f 93       	push	r23
 354:	8f 93       	push	r24
 356:	9f 93       	push	r25
 358:	af 93       	push	r26
 35a:	bf 93       	push	r27
 35c:	ef 93       	push	r30
 35e:	ff 93       	push	r31
  INT2_external_interrupt();
 360:	e0 91 8f 00 	lds	r30, 0x008F
 364:	f0 91 90 00 	lds	r31, 0x0090
 368:	09 95       	icall
}
 36a:	ff 91       	pop	r31
 36c:	ef 91       	pop	r30
 36e:	bf 91       	pop	r27
 370:	af 91       	pop	r26
 372:	9f 91       	pop	r25
 374:	8f 91       	pop	r24
 376:	7f 91       	pop	r23
 378:	6f 91       	pop	r22
 37a:	5f 91       	pop	r21
 37c:	4f 91       	pop	r20
 37e:	3f 91       	pop	r19
 380:	2f 91       	pop	r18
 382:	0f 90       	pop	r0
 384:	0f be       	out	0x3f, r0	; 63
 386:	0f 90       	pop	r0
 388:	1f 90       	pop	r1
 38a:	18 95       	reti

0000038c <__vector_4>:


void __vector_4(void) __attribute__((signal));
void __vector_4(void)
{
 38c:	1f 92       	push	r1
 38e:	0f 92       	push	r0
 390:	0f b6       	in	r0, 0x3f	; 63
 392:	0f 92       	push	r0
 394:	11 24       	eor	r1, r1
 396:	2f 93       	push	r18
 398:	3f 93       	push	r19
 39a:	4f 93       	push	r20
 39c:	5f 93       	push	r21
 39e:	6f 93       	push	r22
 3a0:	7f 93       	push	r23
 3a2:	8f 93       	push	r24
 3a4:	9f 93       	push	r25
 3a6:	af 93       	push	r26
 3a8:	bf 93       	push	r27
 3aa:	ef 93       	push	r30
 3ac:	ff 93       	push	r31
TIMER2COMP();
 3ae:	e0 91 a5 00 	lds	r30, 0x00A5
 3b2:	f0 91 a6 00 	lds	r31, 0x00A6
 3b6:	09 95       	icall
}
 3b8:	ff 91       	pop	r31
 3ba:	ef 91       	pop	r30
 3bc:	bf 91       	pop	r27
 3be:	af 91       	pop	r26
 3c0:	9f 91       	pop	r25
 3c2:	8f 91       	pop	r24
 3c4:	7f 91       	pop	r23
 3c6:	6f 91       	pop	r22
 3c8:	5f 91       	pop	r21
 3ca:	4f 91       	pop	r20
 3cc:	3f 91       	pop	r19
 3ce:	2f 91       	pop	r18
 3d0:	0f 90       	pop	r0
 3d2:	0f be       	out	0x3f, r0	; 63
 3d4:	0f 90       	pop	r0
 3d6:	1f 90       	pop	r1
 3d8:	18 95       	reti

000003da <__vector_5>:


void __vector_5(void) __attribute__((signal));
void __vector_5(void)
{
 3da:	1f 92       	push	r1
 3dc:	0f 92       	push	r0
 3de:	0f b6       	in	r0, 0x3f	; 63
 3e0:	0f 92       	push	r0
 3e2:	11 24       	eor	r1, r1
 3e4:	2f 93       	push	r18
 3e6:	3f 93       	push	r19
 3e8:	4f 93       	push	r20
 3ea:	5f 93       	push	r21
 3ec:	6f 93       	push	r22
 3ee:	7f 93       	push	r23
 3f0:	8f 93       	push	r24
 3f2:	9f 93       	push	r25
 3f4:	af 93       	push	r26
 3f6:	bf 93       	push	r27
 3f8:	ef 93       	push	r30
 3fa:	ff 93       	push	r31
  TIMER2OVF();
 3fc:	e0 91 85 00 	lds	r30, 0x0085
 400:	f0 91 86 00 	lds	r31, 0x0086
 404:	09 95       	icall
}
 406:	ff 91       	pop	r31
 408:	ef 91       	pop	r30
 40a:	bf 91       	pop	r27
 40c:	af 91       	pop	r26
 40e:	9f 91       	pop	r25
 410:	8f 91       	pop	r24
 412:	7f 91       	pop	r23
 414:	6f 91       	pop	r22
 416:	5f 91       	pop	r21
 418:	4f 91       	pop	r20
 41a:	3f 91       	pop	r19
 41c:	2f 91       	pop	r18
 41e:	0f 90       	pop	r0
 420:	0f be       	out	0x3f, r0	; 63
 422:	0f 90       	pop	r0
 424:	1f 90       	pop	r1
 426:	18 95       	reti

00000428 <__vector_6>:

void __vector_6(void) __attribute__((signal));
void __vector_6(void)
{
 428:	1f 92       	push	r1
 42a:	0f 92       	push	r0
 42c:	0f b6       	in	r0, 0x3f	; 63
 42e:	0f 92       	push	r0
 430:	11 24       	eor	r1, r1
 432:	2f 93       	push	r18
 434:	3f 93       	push	r19
 436:	4f 93       	push	r20
 438:	5f 93       	push	r21
 43a:	6f 93       	push	r22
 43c:	7f 93       	push	r23
 43e:	8f 93       	push	r24
 440:	9f 93       	push	r25
 442:	af 93       	push	r26
 444:	bf 93       	push	r27
 446:	ef 93       	push	r30
 448:	ff 93       	push	r31
  TIMER1CAPT();
 44a:	e0 91 a1 00 	lds	r30, 0x00A1
 44e:	f0 91 a2 00 	lds	r31, 0x00A2
 452:	09 95       	icall
}
 454:	ff 91       	pop	r31
 456:	ef 91       	pop	r30
 458:	bf 91       	pop	r27
 45a:	af 91       	pop	r26
 45c:	9f 91       	pop	r25
 45e:	8f 91       	pop	r24
 460:	7f 91       	pop	r23
 462:	6f 91       	pop	r22
 464:	5f 91       	pop	r21
 466:	4f 91       	pop	r20
 468:	3f 91       	pop	r19
 46a:	2f 91       	pop	r18
 46c:	0f 90       	pop	r0
 46e:	0f be       	out	0x3f, r0	; 63
 470:	0f 90       	pop	r0
 472:	1f 90       	pop	r1
 474:	18 95       	reti

00000476 <__vector_7>:

void __vector_7(void) __attribute__((signal));
void __vector_7(void)
{
 476:	1f 92       	push	r1
 478:	0f 92       	push	r0
 47a:	0f b6       	in	r0, 0x3f	; 63
 47c:	0f 92       	push	r0
 47e:	11 24       	eor	r1, r1
 480:	2f 93       	push	r18
 482:	3f 93       	push	r19
 484:	4f 93       	push	r20
 486:	5f 93       	push	r21
 488:	6f 93       	push	r22
 48a:	7f 93       	push	r23
 48c:	8f 93       	push	r24
 48e:	9f 93       	push	r25
 490:	af 93       	push	r26
 492:	bf 93       	push	r27
 494:	ef 93       	push	r30
 496:	ff 93       	push	r31
TIMER1COMPA();
 498:	e0 91 8b 00 	lds	r30, 0x008B
 49c:	f0 91 8c 00 	lds	r31, 0x008C
 4a0:	09 95       	icall
}
 4a2:	ff 91       	pop	r31
 4a4:	ef 91       	pop	r30
 4a6:	bf 91       	pop	r27
 4a8:	af 91       	pop	r26
 4aa:	9f 91       	pop	r25
 4ac:	8f 91       	pop	r24
 4ae:	7f 91       	pop	r23
 4b0:	6f 91       	pop	r22
 4b2:	5f 91       	pop	r21
 4b4:	4f 91       	pop	r20
 4b6:	3f 91       	pop	r19
 4b8:	2f 91       	pop	r18
 4ba:	0f 90       	pop	r0
 4bc:	0f be       	out	0x3f, r0	; 63
 4be:	0f 90       	pop	r0
 4c0:	1f 90       	pop	r1
 4c2:	18 95       	reti

000004c4 <__vector_8>:

void __vector_8(void) __attribute__((signal));
void __vector_8(void)
{
 4c4:	1f 92       	push	r1
 4c6:	0f 92       	push	r0
 4c8:	0f b6       	in	r0, 0x3f	; 63
 4ca:	0f 92       	push	r0
 4cc:	11 24       	eor	r1, r1
 4ce:	2f 93       	push	r18
 4d0:	3f 93       	push	r19
 4d2:	4f 93       	push	r20
 4d4:	5f 93       	push	r21
 4d6:	6f 93       	push	r22
 4d8:	7f 93       	push	r23
 4da:	8f 93       	push	r24
 4dc:	9f 93       	push	r25
 4de:	af 93       	push	r26
 4e0:	bf 93       	push	r27
 4e2:	ef 93       	push	r30
 4e4:	ff 93       	push	r31
  TIMER1COMPB();
 4e6:	e0 91 89 00 	lds	r30, 0x0089
 4ea:	f0 91 8a 00 	lds	r31, 0x008A
 4ee:	09 95       	icall
}
 4f0:	ff 91       	pop	r31
 4f2:	ef 91       	pop	r30
 4f4:	bf 91       	pop	r27
 4f6:	af 91       	pop	r26
 4f8:	9f 91       	pop	r25
 4fa:	8f 91       	pop	r24
 4fc:	7f 91       	pop	r23
 4fe:	6f 91       	pop	r22
 500:	5f 91       	pop	r21
 502:	4f 91       	pop	r20
 504:	3f 91       	pop	r19
 506:	2f 91       	pop	r18
 508:	0f 90       	pop	r0
 50a:	0f be       	out	0x3f, r0	; 63
 50c:	0f 90       	pop	r0
 50e:	1f 90       	pop	r1
 510:	18 95       	reti

00000512 <__vector_9>:

void __vector_9(void) __attribute__((signal));
void __vector_9(void)
{
 512:	1f 92       	push	r1
 514:	0f 92       	push	r0
 516:	0f b6       	in	r0, 0x3f	; 63
 518:	0f 92       	push	r0
 51a:	11 24       	eor	r1, r1
 51c:	2f 93       	push	r18
 51e:	3f 93       	push	r19
 520:	4f 93       	push	r20
 522:	5f 93       	push	r21
 524:	6f 93       	push	r22
 526:	7f 93       	push	r23
 528:	8f 93       	push	r24
 52a:	9f 93       	push	r25
 52c:	af 93       	push	r26
 52e:	bf 93       	push	r27
 530:	ef 93       	push	r30
 532:	ff 93       	push	r31
  TIMER1OVF();
 534:	e0 91 a3 00 	lds	r30, 0x00A3
 538:	f0 91 a4 00 	lds	r31, 0x00A4
 53c:	09 95       	icall
}
 53e:	ff 91       	pop	r31
 540:	ef 91       	pop	r30
 542:	bf 91       	pop	r27
 544:	af 91       	pop	r26
 546:	9f 91       	pop	r25
 548:	8f 91       	pop	r24
 54a:	7f 91       	pop	r23
 54c:	6f 91       	pop	r22
 54e:	5f 91       	pop	r21
 550:	4f 91       	pop	r20
 552:	3f 91       	pop	r19
 554:	2f 91       	pop	r18
 556:	0f 90       	pop	r0
 558:	0f be       	out	0x3f, r0	; 63
 55a:	0f 90       	pop	r0
 55c:	1f 90       	pop	r1
 55e:	18 95       	reti

00000560 <__vector_10>:

void __vector_10(void) __attribute__((signal));
void __vector_10(void)
{
 560:	1f 92       	push	r1
 562:	0f 92       	push	r0
 564:	0f b6       	in	r0, 0x3f	; 63
 566:	0f 92       	push	r0
 568:	11 24       	eor	r1, r1
 56a:	2f 93       	push	r18
 56c:	3f 93       	push	r19
 56e:	4f 93       	push	r20
 570:	5f 93       	push	r21
 572:	6f 93       	push	r22
 574:	7f 93       	push	r23
 576:	8f 93       	push	r24
 578:	9f 93       	push	r25
 57a:	af 93       	push	r26
 57c:	bf 93       	push	r27
 57e:	ef 93       	push	r30
 580:	ff 93       	push	r31

  TIMER0COMP();
 582:	e0 91 9b 00 	lds	r30, 0x009B
 586:	f0 91 9c 00 	lds	r31, 0x009C
 58a:	09 95       	icall
}
 58c:	ff 91       	pop	r31
 58e:	ef 91       	pop	r30
 590:	bf 91       	pop	r27
 592:	af 91       	pop	r26
 594:	9f 91       	pop	r25
 596:	8f 91       	pop	r24
 598:	7f 91       	pop	r23
 59a:	6f 91       	pop	r22
 59c:	5f 91       	pop	r21
 59e:	4f 91       	pop	r20
 5a0:	3f 91       	pop	r19
 5a2:	2f 91       	pop	r18
 5a4:	0f 90       	pop	r0
 5a6:	0f be       	out	0x3f, r0	; 63
 5a8:	0f 90       	pop	r0
 5aa:	1f 90       	pop	r1
 5ac:	18 95       	reti

000005ae <__vector_11>:

void __vector_11(void) __attribute__((signal));
void __vector_11(void)
{
 5ae:	1f 92       	push	r1
 5b0:	0f 92       	push	r0
 5b2:	0f b6       	in	r0, 0x3f	; 63
 5b4:	0f 92       	push	r0
 5b6:	11 24       	eor	r1, r1
 5b8:	2f 93       	push	r18
 5ba:	3f 93       	push	r19
 5bc:	4f 93       	push	r20
 5be:	5f 93       	push	r21
 5c0:	6f 93       	push	r22
 5c2:	7f 93       	push	r23
 5c4:	8f 93       	push	r24
 5c6:	9f 93       	push	r25
 5c8:	af 93       	push	r26
 5ca:	bf 93       	push	r27
 5cc:	ef 93       	push	r30
 5ce:	ff 93       	push	r31

  TIMER0OVF_INT();
 5d0:	e0 91 6c 00 	lds	r30, 0x006C
 5d4:	f0 91 6d 00 	lds	r31, 0x006D
 5d8:	09 95       	icall
}
 5da:	ff 91       	pop	r31
 5dc:	ef 91       	pop	r30
 5de:	bf 91       	pop	r27
 5e0:	af 91       	pop	r26
 5e2:	9f 91       	pop	r25
 5e4:	8f 91       	pop	r24
 5e6:	7f 91       	pop	r23
 5e8:	6f 91       	pop	r22
 5ea:	5f 91       	pop	r21
 5ec:	4f 91       	pop	r20
 5ee:	3f 91       	pop	r19
 5f0:	2f 91       	pop	r18
 5f2:	0f 90       	pop	r0
 5f4:	0f be       	out	0x3f, r0	; 63
 5f6:	0f 90       	pop	r0
 5f8:	1f 90       	pop	r1
 5fa:	18 95       	reti

000005fc <__vector_12>:

void __vector_12(void) __attribute__((signal));
void __vector_12(void)
{
 5fc:	1f 92       	push	r1
 5fe:	0f 92       	push	r0
 600:	0f b6       	in	r0, 0x3f	; 63
 602:	0f 92       	push	r0
 604:	11 24       	eor	r1, r1
 606:	2f 93       	push	r18
 608:	3f 93       	push	r19
 60a:	4f 93       	push	r20
 60c:	5f 93       	push	r21
 60e:	6f 93       	push	r22
 610:	7f 93       	push	r23
 612:	8f 93       	push	r24
 614:	9f 93       	push	r25
 616:	af 93       	push	r26
 618:	bf 93       	push	r27
 61a:	ef 93       	push	r30
 61c:	ff 93       	push	r31
  SPI_STC();
 61e:	e0 91 8d 00 	lds	r30, 0x008D
 622:	f0 91 8e 00 	lds	r31, 0x008E
 626:	09 95       	icall
}
 628:	ff 91       	pop	r31
 62a:	ef 91       	pop	r30
 62c:	bf 91       	pop	r27
 62e:	af 91       	pop	r26
 630:	9f 91       	pop	r25
 632:	8f 91       	pop	r24
 634:	7f 91       	pop	r23
 636:	6f 91       	pop	r22
 638:	5f 91       	pop	r21
 63a:	4f 91       	pop	r20
 63c:	3f 91       	pop	r19
 63e:	2f 91       	pop	r18
 640:	0f 90       	pop	r0
 642:	0f be       	out	0x3f, r0	; 63
 644:	0f 90       	pop	r0
 646:	1f 90       	pop	r1
 648:	18 95       	reti

0000064a <__vector_13>:

void __vector_13(void) __attribute__((signal));
void __vector_13(void)
{
 64a:	1f 92       	push	r1
 64c:	0f 92       	push	r0
 64e:	0f b6       	in	r0, 0x3f	; 63
 650:	0f 92       	push	r0
 652:	11 24       	eor	r1, r1
 654:	2f 93       	push	r18
 656:	3f 93       	push	r19
 658:	4f 93       	push	r20
 65a:	5f 93       	push	r21
 65c:	6f 93       	push	r22
 65e:	7f 93       	push	r23
 660:	8f 93       	push	r24
 662:	9f 93       	push	r25
 664:	af 93       	push	r26
 666:	bf 93       	push	r27
 668:	ef 93       	push	r30
 66a:	ff 93       	push	r31
  USART_RXC();
 66c:	e0 91 83 00 	lds	r30, 0x0083
 670:	f0 91 84 00 	lds	r31, 0x0084
 674:	09 95       	icall
}
 676:	ff 91       	pop	r31
 678:	ef 91       	pop	r30
 67a:	bf 91       	pop	r27
 67c:	af 91       	pop	r26
 67e:	9f 91       	pop	r25
 680:	8f 91       	pop	r24
 682:	7f 91       	pop	r23
 684:	6f 91       	pop	r22
 686:	5f 91       	pop	r21
 688:	4f 91       	pop	r20
 68a:	3f 91       	pop	r19
 68c:	2f 91       	pop	r18
 68e:	0f 90       	pop	r0
 690:	0f be       	out	0x3f, r0	; 63
 692:	0f 90       	pop	r0
 694:	1f 90       	pop	r1
 696:	18 95       	reti

00000698 <__vector_14>:

void __vector_14(void) __attribute__((signal));
void __vector_14(void)
{
 698:	1f 92       	push	r1
 69a:	0f 92       	push	r0
 69c:	0f b6       	in	r0, 0x3f	; 63
 69e:	0f 92       	push	r0
 6a0:	11 24       	eor	r1, r1
 6a2:	2f 93       	push	r18
 6a4:	3f 93       	push	r19
 6a6:	4f 93       	push	r20
 6a8:	5f 93       	push	r21
 6aa:	6f 93       	push	r22
 6ac:	7f 93       	push	r23
 6ae:	8f 93       	push	r24
 6b0:	9f 93       	push	r25
 6b2:	af 93       	push	r26
 6b4:	bf 93       	push	r27
 6b6:	ef 93       	push	r30
 6b8:	ff 93       	push	r31
  USART_UDRE();
 6ba:	e0 91 9d 00 	lds	r30, 0x009D
 6be:	f0 91 9e 00 	lds	r31, 0x009E
 6c2:	09 95       	icall
}
 6c4:	ff 91       	pop	r31
 6c6:	ef 91       	pop	r30
 6c8:	bf 91       	pop	r27
 6ca:	af 91       	pop	r26
 6cc:	9f 91       	pop	r25
 6ce:	8f 91       	pop	r24
 6d0:	7f 91       	pop	r23
 6d2:	6f 91       	pop	r22
 6d4:	5f 91       	pop	r21
 6d6:	4f 91       	pop	r20
 6d8:	3f 91       	pop	r19
 6da:	2f 91       	pop	r18
 6dc:	0f 90       	pop	r0
 6de:	0f be       	out	0x3f, r0	; 63
 6e0:	0f 90       	pop	r0
 6e2:	1f 90       	pop	r1
 6e4:	18 95       	reti

000006e6 <__vector_15>:

void __vector_15(void) __attribute__((signal));
void __vector_15(void)
{
 6e6:	1f 92       	push	r1
 6e8:	0f 92       	push	r0
 6ea:	0f b6       	in	r0, 0x3f	; 63
 6ec:	0f 92       	push	r0
 6ee:	11 24       	eor	r1, r1
 6f0:	2f 93       	push	r18
 6f2:	3f 93       	push	r19
 6f4:	4f 93       	push	r20
 6f6:	5f 93       	push	r21
 6f8:	6f 93       	push	r22
 6fa:	7f 93       	push	r23
 6fc:	8f 93       	push	r24
 6fe:	9f 93       	push	r25
 700:	af 93       	push	r26
 702:	bf 93       	push	r27
 704:	ef 93       	push	r30
 706:	ff 93       	push	r31
  USART_TXC();
 708:	e0 91 99 00 	lds	r30, 0x0099
 70c:	f0 91 9a 00 	lds	r31, 0x009A
 710:	09 95       	icall
}
 712:	ff 91       	pop	r31
 714:	ef 91       	pop	r30
 716:	bf 91       	pop	r27
 718:	af 91       	pop	r26
 71a:	9f 91       	pop	r25
 71c:	8f 91       	pop	r24
 71e:	7f 91       	pop	r23
 720:	6f 91       	pop	r22
 722:	5f 91       	pop	r21
 724:	4f 91       	pop	r20
 726:	3f 91       	pop	r19
 728:	2f 91       	pop	r18
 72a:	0f 90       	pop	r0
 72c:	0f be       	out	0x3f, r0	; 63
 72e:	0f 90       	pop	r0
 730:	1f 90       	pop	r1
 732:	18 95       	reti

00000734 <__vector_16>:

void __vector_16(void) __attribute__((signal));
void __vector_16(void)
{
 734:	1f 92       	push	r1
 736:	0f 92       	push	r0
 738:	0f b6       	in	r0, 0x3f	; 63
 73a:	0f 92       	push	r0
 73c:	11 24       	eor	r1, r1
 73e:	2f 93       	push	r18
 740:	3f 93       	push	r19
 742:	4f 93       	push	r20
 744:	5f 93       	push	r21
 746:	6f 93       	push	r22
 748:	7f 93       	push	r23
 74a:	8f 93       	push	r24
 74c:	9f 93       	push	r25
 74e:	af 93       	push	r26
 750:	bf 93       	push	r27
 752:	ef 93       	push	r30
 754:	ff 93       	push	r31
  ADC_INT();
 756:	e0 91 93 00 	lds	r30, 0x0093
 75a:	f0 91 94 00 	lds	r31, 0x0094
 75e:	09 95       	icall
}
 760:	ff 91       	pop	r31
 762:	ef 91       	pop	r30
 764:	bf 91       	pop	r27
 766:	af 91       	pop	r26
 768:	9f 91       	pop	r25
 76a:	8f 91       	pop	r24
 76c:	7f 91       	pop	r23
 76e:	6f 91       	pop	r22
 770:	5f 91       	pop	r21
 772:	4f 91       	pop	r20
 774:	3f 91       	pop	r19
 776:	2f 91       	pop	r18
 778:	0f 90       	pop	r0
 77a:	0f be       	out	0x3f, r0	; 63
 77c:	0f 90       	pop	r0
 77e:	1f 90       	pop	r1
 780:	18 95       	reti

00000782 <__vector_17>:

void __vector_17(void) __attribute__((signal));
void __vector_17(void)
{
 782:	1f 92       	push	r1
 784:	0f 92       	push	r0
 786:	0f b6       	in	r0, 0x3f	; 63
 788:	0f 92       	push	r0
 78a:	11 24       	eor	r1, r1
 78c:	2f 93       	push	r18
 78e:	3f 93       	push	r19
 790:	4f 93       	push	r20
 792:	5f 93       	push	r21
 794:	6f 93       	push	r22
 796:	7f 93       	push	r23
 798:	8f 93       	push	r24
 79a:	9f 93       	push	r25
 79c:	af 93       	push	r26
 79e:	bf 93       	push	r27
 7a0:	ef 93       	push	r30
 7a2:	ff 93       	push	r31
  EE_RDY();
 7a4:	e0 91 95 00 	lds	r30, 0x0095
 7a8:	f0 91 96 00 	lds	r31, 0x0096
 7ac:	09 95       	icall
}
 7ae:	ff 91       	pop	r31
 7b0:	ef 91       	pop	r30
 7b2:	bf 91       	pop	r27
 7b4:	af 91       	pop	r26
 7b6:	9f 91       	pop	r25
 7b8:	8f 91       	pop	r24
 7ba:	7f 91       	pop	r23
 7bc:	6f 91       	pop	r22
 7be:	5f 91       	pop	r21
 7c0:	4f 91       	pop	r20
 7c2:	3f 91       	pop	r19
 7c4:	2f 91       	pop	r18
 7c6:	0f 90       	pop	r0
 7c8:	0f be       	out	0x3f, r0	; 63
 7ca:	0f 90       	pop	r0
 7cc:	1f 90       	pop	r1
 7ce:	18 95       	reti

000007d0 <__vector_18>:

void __vector_18(void) __attribute__((signal));
void __vector_18(void)
{
 7d0:	1f 92       	push	r1
 7d2:	0f 92       	push	r0
 7d4:	0f b6       	in	r0, 0x3f	; 63
 7d6:	0f 92       	push	r0
 7d8:	11 24       	eor	r1, r1
 7da:	2f 93       	push	r18
 7dc:	3f 93       	push	r19
 7de:	4f 93       	push	r20
 7e0:	5f 93       	push	r21
 7e2:	6f 93       	push	r22
 7e4:	7f 93       	push	r23
 7e6:	8f 93       	push	r24
 7e8:	9f 93       	push	r25
 7ea:	af 93       	push	r26
 7ec:	bf 93       	push	r27
 7ee:	ef 93       	push	r30
 7f0:	ff 93       	push	r31
  ANA_COMP();
 7f2:	e0 91 91 00 	lds	r30, 0x0091
 7f6:	f0 91 92 00 	lds	r31, 0x0092
 7fa:	09 95       	icall
}
 7fc:	ff 91       	pop	r31
 7fe:	ef 91       	pop	r30
 800:	bf 91       	pop	r27
 802:	af 91       	pop	r26
 804:	9f 91       	pop	r25
 806:	8f 91       	pop	r24
 808:	7f 91       	pop	r23
 80a:	6f 91       	pop	r22
 80c:	5f 91       	pop	r21
 80e:	4f 91       	pop	r20
 810:	3f 91       	pop	r19
 812:	2f 91       	pop	r18
 814:	0f 90       	pop	r0
 816:	0f be       	out	0x3f, r0	; 63
 818:	0f 90       	pop	r0
 81a:	1f 90       	pop	r1
 81c:	18 95       	reti

0000081e <__vector_19>:

void __vector_19(void) __attribute__((signal));
void __vector_19(void)
{
 81e:	1f 92       	push	r1
 820:	0f 92       	push	r0
 822:	0f b6       	in	r0, 0x3f	; 63
 824:	0f 92       	push	r0
 826:	11 24       	eor	r1, r1
 828:	2f 93       	push	r18
 82a:	3f 93       	push	r19
 82c:	4f 93       	push	r20
 82e:	5f 93       	push	r21
 830:	6f 93       	push	r22
 832:	7f 93       	push	r23
 834:	8f 93       	push	r24
 836:	9f 93       	push	r25
 838:	af 93       	push	r26
 83a:	bf 93       	push	r27
 83c:	ef 93       	push	r30
 83e:	ff 93       	push	r31
  TWI_I2C();
 840:	e0 91 81 00 	lds	r30, 0x0081
 844:	f0 91 82 00 	lds	r31, 0x0082
 848:	09 95       	icall
}
 84a:	ff 91       	pop	r31
 84c:	ef 91       	pop	r30
 84e:	bf 91       	pop	r27
 850:	af 91       	pop	r26
 852:	9f 91       	pop	r25
 854:	8f 91       	pop	r24
 856:	7f 91       	pop	r23
 858:	6f 91       	pop	r22
 85a:	5f 91       	pop	r21
 85c:	4f 91       	pop	r20
 85e:	3f 91       	pop	r19
 860:	2f 91       	pop	r18
 862:	0f 90       	pop	r0
 864:	0f be       	out	0x3f, r0	; 63
 866:	0f 90       	pop	r0
 868:	1f 90       	pop	r1
 86a:	18 95       	reti

0000086c <__vector_20>:

void __vector_20(void) __attribute__((signal));
void __vector_20(void)
{
 86c:	1f 92       	push	r1
 86e:	0f 92       	push	r0
 870:	0f b6       	in	r0, 0x3f	; 63
 872:	0f 92       	push	r0
 874:	11 24       	eor	r1, r1
 876:	2f 93       	push	r18
 878:	3f 93       	push	r19
 87a:	4f 93       	push	r20
 87c:	5f 93       	push	r21
 87e:	6f 93       	push	r22
 880:	7f 93       	push	r23
 882:	8f 93       	push	r24
 884:	9f 93       	push	r25
 886:	af 93       	push	r26
 888:	bf 93       	push	r27
 88a:	ef 93       	push	r30
 88c:	ff 93       	push	r31
  SPM_RDY();
 88e:	e0 91 87 00 	lds	r30, 0x0087
 892:	f0 91 88 00 	lds	r31, 0x0088
 896:	09 95       	icall
}
 898:	ff 91       	pop	r31
 89a:	ef 91       	pop	r30
 89c:	bf 91       	pop	r27
 89e:	af 91       	pop	r26
 8a0:	9f 91       	pop	r25
 8a2:	8f 91       	pop	r24
 8a4:	7f 91       	pop	r23
 8a6:	6f 91       	pop	r22
 8a8:	5f 91       	pop	r21
 8aa:	4f 91       	pop	r20
 8ac:	3f 91       	pop	r19
 8ae:	2f 91       	pop	r18
 8b0:	0f 90       	pop	r0
 8b2:	0f be       	out	0x3f, r0	; 63
 8b4:	0f 90       	pop	r0
 8b6:	1f 90       	pop	r1
 8b8:	18 95       	reti

000008ba <main>:


#include "Timer.h"
#include "TMU.h"
int main(void)
{	PORTB_DIR=0xff;
 8ba:	8f ef       	ldi	r24, 0xFF	; 255
 8bc:	87 bb       	out	0x17, r24	; 23
	PORTA_DIR=0xff;
 8be:	8a bb       	out	0x1a, r24	; 26
	PORTC_DIR=0xff;
 8c0:	84 bb       	out	0x14, r24	; 20
	PORTD_DIR=0xff;
 8c2:	81 bb       	out	0x11, r24	; 17
	PORTB_DATA=0xff;
 8c4:	88 bb       	out	0x18, r24	; 24
	PORTA_DATA=0xff;
 8c6:	8b bb       	out	0x1b, r24	; 27
	PORTC_DATA=0xff;
 8c8:	85 bb       	out	0x15, r24	; 21
	PORTD_DATA=0xff;
 8ca:	82 bb       	out	0x12, r24	; 18
	
	TMU_Init(&TMU_Configuration);
 8cc:	8a e7       	ldi	r24, 0x7A	; 122
 8ce:	90 e0       	ldi	r25, 0x00	; 0
 8d0:	0e 94 e4 06 	call	0xdc8	; 0xdc8 <TMU_Init>
	TMU_Start_Timer(Tmu_excute,1,0,1);
 8d4:	83 e8       	ldi	r24, 0x83	; 131
 8d6:	97 e0       	ldi	r25, 0x07	; 7
 8d8:	61 e0       	ldi	r22, 0x01	; 1
 8da:	40 e0       	ldi	r20, 0x00	; 0
 8dc:	21 e0       	ldi	r18, 0x01	; 1
 8de:	30 e0       	ldi	r19, 0x00	; 0
 8e0:	0e 94 24 07 	call	0xe48	; 0xe48 <TMU_Start_Timer>
	//TMU_Start_Timer(Tmu_Fun,1,1,100);
	//TMU_Start_Timer(Tmu_For,1,2,100);
	
	while(1)
    {
		TMU_Main_Function();
 8e4:	0e 94 3e 07 	call	0xe7c	; 0xe7c <TMU_Main_Function>
 8e8:	fd cf       	rjmp	.-6      	; 0x8e4 <main+0x2a>

000008ea <Timer_Init>:
 *
 */
 static uint8_t prescaler_value=0;
 
ERROR_STATUS Timer_Init(Timer_cfg_s* Timer_cfg)
{
 8ea:	cf 93       	push	r28
 8ec:	df 93       	push	r29
 8ee:	ec 01       	movw	r28, r24
prescaler_value=Timer_cfg->Timer_Prescaler;
 8f0:	8b 81       	ldd	r24, Y+3	; 0x03
 8f2:	80 93 7c 00 	sts	0x007C, r24
switch (Timer_cfg->Timer_CH_NO) {
 8f6:	88 81       	ld	r24, Y
 8f8:	81 30       	cpi	r24, 0x01	; 1
 8fa:	09 f4       	brne	.+2      	; 0x8fe <Timer_Init+0x14>
 8fc:	48 c0       	rjmp	.+144    	; 0x98e <Timer_Init+0xa4>
 8fe:	81 30       	cpi	r24, 0x01	; 1
 900:	20 f0       	brcs	.+8      	; 0x90a <Timer_Init+0x20>
 902:	82 30       	cpi	r24, 0x02	; 2
 904:	09 f0       	breq	.+2      	; 0x908 <Timer_Init+0x1e>
 906:	d7 c0       	rjmp	.+430    	; 0xab6 <Timer_Init+0x1cc>
 908:	90 c0       	rjmp	.+288    	; 0xa2a <Timer_Init+0x140>
/*************************************************************************/
/*                             TIMER 0                                   */
/*************************************************************************/
    case TIMER_CH0:
        {
  TCCR0 |=T0_NORMAL_MODE;
 90a:	83 b7       	in	r24, 0x33	; 51
 90c:	83 bf       	out	0x33, r24	; 51
  
          switch (Timer_cfg->Timer_Mode) {
 90e:	89 81       	ldd	r24, Y+1	; 0x01
 910:	81 30       	cpi	r24, 0x01	; 1
 912:	b9 f0       	breq	.+46     	; 0x942 <Timer_Init+0x58>
 914:	81 30       	cpi	r24, 0x01	; 1
 916:	20 f0       	brcs	.+8      	; 0x920 <Timer_Init+0x36>
 918:	82 30       	cpi	r24, 0x02	; 2
 91a:	09 f0       	breq	.+2      	; 0x91e <Timer_Init+0x34>
 91c:	cd c0       	rjmp	.+410    	; 0xab8 <Timer_Init+0x1ce>
 91e:	24 c0       	rjmp	.+72     	; 0x968 <Timer_Init+0x7e>
          case TIMER_MODE:
              {
                switch (Timer_cfg->Timer_Polling_Or_Interrupt)
 920:	8a 81       	ldd	r24, Y+2	; 0x02
 922:	88 23       	and	r24, r24
 924:	21 f0       	breq	.+8      	; 0x92e <Timer_Init+0x44>
 926:	81 30       	cpi	r24, 0x01	; 1
 928:	09 f0       	breq	.+2      	; 0x92c <Timer_Init+0x42>
 92a:	c8 c0       	rjmp	.+400    	; 0xabc <Timer_Init+0x1d2>
 92c:	04 c0       	rjmp	.+8      	; 0x936 <Timer_Init+0x4c>
				{
                    case TIMER_POLLING_MODE:
                        {/*Disable interrupts for T0 without effecting any other timer*/
                         /*without Disabling Global interrupt*/
                        TIMSK &=T0_INTERRUPT_DISABLE;
 92e:	89 b7       	in	r24, 0x39	; 57
 930:	8c 7f       	andi	r24, 0xFC	; 252
 932:	89 bf       	out	0x39, r24	; 57
                            break;
 934:	2c c0       	rjmp	.+88     	; 0x98e <Timer_Init+0xa4>
                         }
                                  case TIMER_INTERRUPT_MODE:
                                  { /*Enable Global INTERRUPT
                                    Enable Timer0 interrupt
                                    */
                                    G_interrupt_Enable();
 936:	0e 94 28 01 	call	0x250	; 0x250 <G_interrupt_Enable>
                                    TIMSK |= T0_INTERRUPT_NORMAL;
 93a:	89 b7       	in	r24, 0x39	; 57
 93c:	81 60       	ori	r24, 0x01	; 1
 93e:	89 bf       	out	0x39, r24	; 57
                                    break;
 940:	26 c0       	rjmp	.+76     	; 0x98e <Timer_Init+0xa4>
/*                             TIMER 0 As a COUNTER_RISING_MODE          */
/*************************************************************************/

                          case COUNTER_RISING_MODE:
                            {
                                  TCCR0 |=T0_COUNTER_RISING_MODE_CONFIG;
 942:	83 b7       	in	r24, 0x33	; 51
 944:	8d 60       	ori	r24, 0x0D	; 13
 946:	83 bf       	out	0x33, r24	; 51
                                    switch (Timer_cfg->Timer_Polling_Or_Interrupt) {
 948:	8a 81       	ldd	r24, Y+2	; 0x02
 94a:	88 23       	and	r24, r24
 94c:	21 f0       	breq	.+8      	; 0x956 <Timer_Init+0x6c>
 94e:	81 30       	cpi	r24, 0x01	; 1
 950:	09 f0       	breq	.+2      	; 0x954 <Timer_Init+0x6a>
 952:	b6 c0       	rjmp	.+364    	; 0xac0 <Timer_Init+0x1d6>
 954:	04 c0       	rjmp	.+8      	; 0x95e <Timer_Init+0x74>
                                        case TIMER_POLLING_MODE:
                                          {
            /*Disable interrupts for T0 without effecting any other timer*/
              /*without Disabling Global interrupt*/
                                            TIMSK &=T0_INTERRUPT_DISABLE;
 956:	89 b7       	in	r24, 0x39	; 57
 958:	8c 7f       	andi	r24, 0xFC	; 252
 95a:	89 bf       	out	0x39, r24	; 57
                                            break;
 95c:	05 c0       	rjmp	.+10     	; 0x968 <Timer_Init+0x7e>

                                          case TIMER_INTERRUPT_MODE:
                                           /*Enable Global INTERRUPT
                                              Enable Timer0 interrupt
                                              */
                                              G_interrupt_Enable();
 95e:	0e 94 28 01 	call	0x250	; 0x250 <G_interrupt_Enable>
                                              TIMSK |= T0_INTERRUPT_NORMAL;
 962:	89 b7       	in	r24, 0x39	; 57
 964:	81 60       	ori	r24, 0x01	; 1
 966:	89 bf       	out	0x39, r24	; 57
/*                             TIMER 0 As a COUNTER_FALLING_MODE         */
/*************************************************************************/

                                    case COUNTER_FALLING_MODE:
                                    {
                                        TCCR0 |=T0_COUNTER_FALLING_MODE_CONFIG;
 968:	83 b7       	in	r24, 0x33	; 51
 96a:	8c 60       	ori	r24, 0x0C	; 12
 96c:	83 bf       	out	0x33, r24	; 51
                                          switch (Timer_cfg->Timer_Polling_Or_Interrupt) {
 96e:	8a 81       	ldd	r24, Y+2	; 0x02
 970:	88 23       	and	r24, r24
 972:	21 f0       	breq	.+8      	; 0x97c <Timer_Init+0x92>
 974:	81 30       	cpi	r24, 0x01	; 1
 976:	09 f0       	breq	.+2      	; 0x97a <Timer_Init+0x90>
 978:	a5 c0       	rjmp	.+330    	; 0xac4 <Timer_Init+0x1da>
 97a:	04 c0       	rjmp	.+8      	; 0x984 <Timer_Init+0x9a>
                                              case TIMER_POLLING_MODE:
                                                {

            /*Disable interrupts for T0 without effecting any other timer*/
                /*without Disabling Global interrupt*/
                                                  TIMSK &=T0_INTERRUPT_DISABLE;
 97c:	89 b7       	in	r24, 0x39	; 57
 97e:	8c 7f       	andi	r24, 0xFC	; 252
 980:	89 bf       	out	0x39, r24	; 57

                                                  break;
 982:	05 c0       	rjmp	.+10     	; 0x98e <Timer_Init+0xa4>
                                                case TIMER_INTERRUPT_MODE:
                                                  {
                                                    /*Enable Global INTERRUPT
                                                    Enable Timer0 interrupt
                                                    */
                                                    G_interrupt_Enable();
 984:	0e 94 28 01 	call	0x250	; 0x250 <G_interrupt_Enable>
                                                    TIMSK |= T0_INTERRUPT_NORMAL;
 988:	89 b7       	in	r24, 0x39	; 57
 98a:	81 60       	ori	r24, 0x01	; 1
 98c:	89 bf       	out	0x39, r24	; 57
/*************************************************************************/

    case TIMER_CH1:
        {

    switch (Timer_cfg->Timer_Mode)
 98e:	89 81       	ldd	r24, Y+1	; 0x01
 990:	81 30       	cpi	r24, 0x01	; 1
 992:	d9 f0       	breq	.+54     	; 0x9ca <Timer_Init+0xe0>
 994:	81 30       	cpi	r24, 0x01	; 1
 996:	20 f0       	brcs	.+8      	; 0x9a0 <Timer_Init+0xb6>
 998:	82 30       	cpi	r24, 0x02	; 2
 99a:	09 f0       	breq	.+2      	; 0x99e <Timer_Init+0xb4>
 99c:	95 c0       	rjmp	.+298    	; 0xac8 <Timer_Init+0x1de>
 99e:	2d c0       	rjmp	.+90     	; 0x9fa <Timer_Init+0x110>
    {
      case TIMER_MODE:
      {
        TCCR1 = T1_NORMAL_MODE_CONFIG;
 9a0:	1f bc       	out	0x2f, r1	; 47
 9a2:	1e bc       	out	0x2e, r1	; 46
              switch (Timer_cfg->Timer_Polling_Or_Interrupt) {
 9a4:	8a 81       	ldd	r24, Y+2	; 0x02
 9a6:	88 23       	and	r24, r24
 9a8:	21 f0       	breq	.+8      	; 0x9b2 <Timer_Init+0xc8>
 9aa:	81 30       	cpi	r24, 0x01	; 1
 9ac:	09 f0       	breq	.+2      	; 0x9b0 <Timer_Init+0xc6>
 9ae:	8e c0       	rjmp	.+284    	; 0xacc <Timer_Init+0x1e2>
 9b0:	05 c0       	rjmp	.+10     	; 0x9bc <Timer_Init+0xd2>
              case TIMER_POLLING_MODE:
                {
                  /*Disable interrupts for T1 without effecting any other timer*/
                   /*without Disabling Global interrupt*/
                  TIMSK &=T1_INTERRUPT_DISABLE;
 9b2:	89 b7       	in	r24, 0x39	; 57
 9b4:	83 7c       	andi	r24, 0xC3	; 195
 9b6:	89 bf       	out	0x39, r24	; 57
      }
      default :
      return E_NOK;
    }

  return E_OK;
 9b8:	80 e0       	ldi	r24, 0x00	; 0
                {
                  /*Disable interrupts for T1 without effecting any other timer*/
                   /*without Disabling Global interrupt*/
                  TIMSK &=T1_INTERRUPT_DISABLE;

                break;
 9ba:	95 c0       	rjmp	.+298    	; 0xae6 <Timer_Init+0x1fc>
              }
              case TIMER_INTERRUPT_MODE:
              {
                G_interrupt_Enable();
 9bc:	0e 94 28 01 	call	0x250	; 0x250 <G_interrupt_Enable>
                TIMSK |=T1_INTERRUPT_NORMAL;
 9c0:	89 b7       	in	r24, 0x39	; 57
 9c2:	84 60       	ori	r24, 0x04	; 4
 9c4:	89 bf       	out	0x39, r24	; 57
      }
      default :
      return E_NOK;
    }

  return E_OK;
 9c6:	80 e0       	ldi	r24, 0x00	; 0
                G_interrupt_Enable();
                TIMSK |=T1_INTERRUPT_NORMAL;
                /*Enable Global INTERRUPT
                Enable Timer0 interrupt
                */
                break;
 9c8:	8e c0       	rjmp	.+284    	; 0xae6 <Timer_Init+0x1fc>
            }
        break;
      }
      case COUNTER_RISING_MODE:
      {
            TCCR1|=T1_COUNTER_RISING_MODE_CONFIG;
 9ca:	8e b5       	in	r24, 0x2e	; 46
 9cc:	9f b5       	in	r25, 0x2f	; 47
 9ce:	87 60       	ori	r24, 0x07	; 7
 9d0:	9f bd       	out	0x2f, r25	; 47
 9d2:	8e bd       	out	0x2e, r24	; 46

            switch (Timer_cfg->Timer_Polling_Or_Interrupt) {
 9d4:	8a 81       	ldd	r24, Y+2	; 0x02
 9d6:	88 23       	and	r24, r24
 9d8:	21 f0       	breq	.+8      	; 0x9e2 <Timer_Init+0xf8>
 9da:	81 30       	cpi	r24, 0x01	; 1
 9dc:	09 f0       	breq	.+2      	; 0x9e0 <Timer_Init+0xf6>
 9de:	78 c0       	rjmp	.+240    	; 0xad0 <Timer_Init+0x1e6>
 9e0:	05 c0       	rjmp	.+10     	; 0x9ec <Timer_Init+0x102>
              case TIMER_POLLING_MODE:
              {
                /*Disable interrupts for T1 without effecting any other timer*/
                 /*without Disabling Global interrupt*/
                TIMSK &=T1_INTERRUPT_DISABLE;
 9e2:	89 b7       	in	r24, 0x39	; 57
 9e4:	83 7c       	andi	r24, 0xC3	; 195
 9e6:	89 bf       	out	0x39, r24	; 57
      }
      default :
      return E_NOK;
    }

  return E_OK;
 9e8:	80 e0       	ldi	r24, 0x00	; 0
              {
                /*Disable interrupts for T1 without effecting any other timer*/
                 /*without Disabling Global interrupt*/
                TIMSK &=T1_INTERRUPT_DISABLE;

                break;
 9ea:	7d c0       	rjmp	.+250    	; 0xae6 <Timer_Init+0x1fc>
              }
              case TIMER_INTERRUPT_MODE:
              {
                G_interrupt_Enable();
 9ec:	0e 94 28 01 	call	0x250	; 0x250 <G_interrupt_Enable>
                TIMSK |=T1_INTERRUPT_NORMAL;
 9f0:	89 b7       	in	r24, 0x39	; 57
 9f2:	84 60       	ori	r24, 0x04	; 4
 9f4:	89 bf       	out	0x39, r24	; 57
      }
      default :
      return E_NOK;
    }

  return E_OK;
 9f6:	80 e0       	ldi	r24, 0x00	; 0
                G_interrupt_Enable();
                TIMSK |=T1_INTERRUPT_NORMAL;
                /*Enable Global INTERRUPT
                Enable Timer0 interrupt
                */
                break;
 9f8:	76 c0       	rjmp	.+236    	; 0xae6 <Timer_Init+0x1fc>
            }
        break;
      }
      case COUNTER_FALLING_MODE:
      {
            TCCR1|=T1_COUNTER_FALLING_MODE_CONFIG;
 9fa:	8e b5       	in	r24, 0x2e	; 46
 9fc:	9f b5       	in	r25, 0x2f	; 47
 9fe:	86 60       	ori	r24, 0x06	; 6
 a00:	9f bd       	out	0x2f, r25	; 47
 a02:	8e bd       	out	0x2e, r24	; 46
            switch (Timer_cfg->Timer_Polling_Or_Interrupt) {
 a04:	8a 81       	ldd	r24, Y+2	; 0x02
 a06:	88 23       	and	r24, r24
 a08:	21 f0       	breq	.+8      	; 0xa12 <Timer_Init+0x128>
 a0a:	81 30       	cpi	r24, 0x01	; 1
 a0c:	09 f0       	breq	.+2      	; 0xa10 <Timer_Init+0x126>
 a0e:	62 c0       	rjmp	.+196    	; 0xad4 <Timer_Init+0x1ea>
 a10:	05 c0       	rjmp	.+10     	; 0xa1c <Timer_Init+0x132>
              case TIMER_POLLING_MODE:
              {
                /*Disable interrupts for T1 without effecting any other timer*/
                 /*without Disabling Global interrupt*/
                TIMSK &=T1_INTERRUPT_DISABLE;
 a12:	89 b7       	in	r24, 0x39	; 57
 a14:	83 7c       	andi	r24, 0xC3	; 195
 a16:	89 bf       	out	0x39, r24	; 57
      }
      default :
      return E_NOK;
    }

  return E_OK;
 a18:	80 e0       	ldi	r24, 0x00	; 0
              case TIMER_POLLING_MODE:
              {
                /*Disable interrupts for T1 without effecting any other timer*/
                 /*without Disabling Global interrupt*/
                TIMSK &=T1_INTERRUPT_DISABLE;
                break;
 a1a:	65 c0       	rjmp	.+202    	; 0xae6 <Timer_Init+0x1fc>
              }
              case TIMER_INTERRUPT_MODE:
              {
                G_interrupt_Enable();
 a1c:	0e 94 28 01 	call	0x250	; 0x250 <G_interrupt_Enable>
                TIMSK |=T1_INTERRUPT_NORMAL;
 a20:	89 b7       	in	r24, 0x39	; 57
 a22:	84 60       	ori	r24, 0x04	; 4
 a24:	89 bf       	out	0x39, r24	; 57
      }
      default :
      return E_NOK;
    }

  return E_OK;
 a26:	80 e0       	ldi	r24, 0x00	; 0
                TIMSK |=T1_INTERRUPT_NORMAL;
                /*Enable Global INTERRUPT
                Enable Timer0 interrupt
                */

                break;
 a28:	5e c0       	rjmp	.+188    	; 0xae6 <Timer_Init+0x1fc>
  /*                             TIMER 2                                   */
  /*************************************************************************/

  case TIMER_CH2:
  {
TCCR2 |=T2_NORMAL_MODE_CONFIG;
 a2a:	85 b5       	in	r24, 0x25	; 37
 a2c:	85 bd       	out	0x25, r24	; 37
    switch (Timer_cfg->Timer_Mode) {
 a2e:	89 81       	ldd	r24, Y+1	; 0x01
 a30:	88 23       	and	r24, r24
 a32:	21 f0       	breq	.+8      	; 0xa3c <Timer_Init+0x152>
 a34:	81 30       	cpi	r24, 0x01	; 1
 a36:	09 f0       	breq	.+2      	; 0xa3a <Timer_Init+0x150>
 a38:	4f c0       	rjmp	.+158    	; 0xad8 <Timer_Init+0x1ee>
 a3a:	11 c0       	rjmp	.+34     	; 0xa5e <Timer_Init+0x174>
      case TIMER_MODE:
      {
            switch (Timer_cfg->Timer_Polling_Or_Interrupt) {
 a3c:	8a 81       	ldd	r24, Y+2	; 0x02
 a3e:	88 23       	and	r24, r24
 a40:	21 f0       	breq	.+8      	; 0xa4a <Timer_Init+0x160>
 a42:	81 30       	cpi	r24, 0x01	; 1
 a44:	09 f0       	breq	.+2      	; 0xa48 <Timer_Init+0x15e>
 a46:	4a c0       	rjmp	.+148    	; 0xadc <Timer_Init+0x1f2>
 a48:	04 c0       	rjmp	.+8      	; 0xa52 <Timer_Init+0x168>
              case TIMER_POLLING_MODE:
              {
                  TIMSK &= T2_INTERRUPT_DISABLE;
 a4a:	89 b7       	in	r24, 0x39	; 57
 a4c:	8f 73       	andi	r24, 0x3F	; 63
 a4e:	89 bf       	out	0x39, r24	; 57
                break;
 a50:	32 c0       	rjmp	.+100    	; 0xab6 <Timer_Init+0x1cc>
              }
              case TIMER_INTERRUPT_MODE:
              {
                G_interrupt_Enable();
 a52:	0e 94 28 01 	call	0x250	; 0x250 <G_interrupt_Enable>
                  TIMSK|=T2_INTERRUPT_NORMAL;
 a56:	89 b7       	in	r24, 0x39	; 57
 a58:	80 6c       	ori	r24, 0xC0	; 192
 a5a:	89 bf       	out	0x39, r24	; 57

                break;
 a5c:	2c c0       	rjmp	.+88     	; 0xab6 <Timer_Init+0x1cc>
            }
        break;
      }
      case COUNTER_RISING_MODE:
      {
          ASSR |=0x08;
 a5e:	82 b5       	in	r24, 0x22	; 34
 a60:	88 60       	ori	r24, 0x08	; 8
 a62:	82 bd       	out	0x22, r24	; 34
            switch (Timer_cfg->Timer_Polling_Or_Interrupt)
 a64:	8a 81       	ldd	r24, Y+2	; 0x02
 a66:	81 30       	cpi	r24, 0x01	; 1
 a68:	51 f0       	breq	.+20     	; 0xa7e <Timer_Init+0x194>
 a6a:	81 30       	cpi	r24, 0x01	; 1
 a6c:	18 f0       	brcs	.+6      	; 0xa74 <Timer_Init+0x18a>
 a6e:	82 30       	cpi	r24, 0x02	; 2
 a70:	b9 f5       	brne	.+110    	; 0xae0 <Timer_Init+0x1f6>
 a72:	0c c0       	rjmp	.+24     	; 0xa8c <Timer_Init+0x1a2>
            {
              case TIMER_POLLING_MODE:
              {
                TIMSK &= T2_INTERRUPT_DISABLE;
 a74:	89 b7       	in	r24, 0x39	; 57
 a76:	8f 73       	andi	r24, 0x3F	; 63
 a78:	89 bf       	out	0x39, r24	; 57
            }
        break;
            }
            }
  default:
  return E_NOK;
 a7a:	81 e0       	ldi	r24, 0x01	; 1
            {
              case TIMER_POLLING_MODE:
              {
                TIMSK &= T2_INTERRUPT_DISABLE;

                break;
 a7c:	34 c0       	rjmp	.+104    	; 0xae6 <Timer_Init+0x1fc>
              }
              case TIMER_INTERRUPT_MODE:
              {
                G_interrupt_Enable();
 a7e:	0e 94 28 01 	call	0x250	; 0x250 <G_interrupt_Enable>
                  TIMSK|=T2_INTERRUPT_NORMAL;
 a82:	89 b7       	in	r24, 0x39	; 57
 a84:	80 6c       	ori	r24, 0xC0	; 192
 a86:	89 bf       	out	0x39, r24	; 57
            }
        break;
            }
            }
  default:
  return E_NOK;
 a88:	81 e0       	ldi	r24, 0x01	; 1
              }
              case TIMER_INTERRUPT_MODE:
              {
                G_interrupt_Enable();
                  TIMSK|=T2_INTERRUPT_NORMAL;
                break;
 a8a:	2d c0       	rjmp	.+90     	; 0xae6 <Timer_Init+0x1fc>
              }
              case COUNTER_FALLING_MODE:
              {
                  ASSR |=0x08;
 a8c:	82 b5       	in	r24, 0x22	; 34
 a8e:	88 60       	ori	r24, 0x08	; 8
 a90:	82 bd       	out	0x22, r24	; 34
                    switch (Timer_cfg->Timer_Polling_Or_Interrupt)
 a92:	8a 81       	ldd	r24, Y+2	; 0x02
 a94:	88 23       	and	r24, r24
 a96:	19 f0       	breq	.+6      	; 0xa9e <Timer_Init+0x1b4>
 a98:	81 30       	cpi	r24, 0x01	; 1
 a9a:	21 f5       	brne	.+72     	; 0xae4 <Timer_Init+0x1fa>
 a9c:	05 c0       	rjmp	.+10     	; 0xaa8 <Timer_Init+0x1be>
                    {
                      case TIMER_POLLING_MODE:
                      {
                        TIMSK &= T2_INTERRUPT_DISABLE;
 a9e:	89 b7       	in	r24, 0x39	; 57
 aa0:	8f 73       	andi	r24, 0x3F	; 63
 aa2:	89 bf       	out	0x39, r24	; 57
            }
        break;
            }
            }
  default:
  return E_NOK;
 aa4:	81 e0       	ldi	r24, 0x01	; 1
                    {
                      case TIMER_POLLING_MODE:
                      {
                        TIMSK &= T2_INTERRUPT_DISABLE;

                        break;
 aa6:	1f c0       	rjmp	.+62     	; 0xae6 <Timer_Init+0x1fc>
                      }
                      case TIMER_INTERRUPT_MODE:
                      {
                        G_interrupt_Enable();
 aa8:	0e 94 28 01 	call	0x250	; 0x250 <G_interrupt_Enable>
                          TIMSK|=T2_INTERRUPT_NORMAL;
 aac:	89 b7       	in	r24, 0x39	; 57
 aae:	80 6c       	ori	r24, 0xC0	; 192
 ab0:	89 bf       	out	0x39, r24	; 57
            }
        break;
            }
            }
  default:
  return E_NOK;
 ab2:	81 e0       	ldi	r24, 0x01	; 1
                      }
                      case TIMER_INTERRUPT_MODE:
                      {
                        G_interrupt_Enable();
                          TIMSK|=T2_INTERRUPT_NORMAL;
                        break;
 ab4:	18 c0       	rjmp	.+48     	; 0xae6 <Timer_Init+0x1fc>
 ab6:	17 c0       	rjmp	.+46     	; 0xae6 <Timer_Init+0x1fc>
                                                  return E_NOK;
                                                }
                                      break;
                                      }
                                      default:
                                      return E_NOK;
 ab8:	81 e0       	ldi	r24, 0x01	; 1
 aba:	15 c0       	rjmp	.+42     	; 0xae6 <Timer_Init+0x1fc>
                                    G_interrupt_Enable();
                                    TIMSK |= T0_INTERRUPT_NORMAL;
                                    break;
                                  }
                                  default :
                                  return E_NOK;
 abc:	81 e0       	ldi	r24, 0x01	; 1
 abe:	13 c0       	rjmp	.+38     	; 0xae6 <Timer_Init+0x1fc>
                                              G_interrupt_Enable();
                                              TIMSK |= T0_INTERRUPT_NORMAL;
                                              break;

                                          default :
                                          return E_NOK;
 ac0:	81 e0       	ldi	r24, 0x01	; 1
 ac2:	11 c0       	rjmp	.+34     	; 0xae6 <Timer_Init+0x1fc>
                                                    TIMSK |= T0_INTERRUPT_NORMAL;

                                                    break;
                                                  }
                                                  default:
                                                  return E_NOK;
 ac4:	81 e0       	ldi	r24, 0x01	; 1
 ac6:	0f c0       	rjmp	.+30     	; 0xae6 <Timer_Init+0x1fc>
              return E_NOK;
            }
      break;
      }
      default :
      return E_NOK;
 ac8:	81 e0       	ldi	r24, 0x01	; 1
 aca:	0d c0       	rjmp	.+26     	; 0xae6 <Timer_Init+0x1fc>
                Enable Timer0 interrupt
                */
                break;
              }
              default :
              return E_NOK;
 acc:	81 e0       	ldi	r24, 0x01	; 1
 ace:	0b c0       	rjmp	.+22     	; 0xae6 <Timer_Init+0x1fc>
                Enable Timer0 interrupt
                */
                break;
              }
              default:
              return E_NOK;
 ad0:	81 e0       	ldi	r24, 0x01	; 1
 ad2:	09 c0       	rjmp	.+18     	; 0xae6 <Timer_Init+0x1fc>
                */

                break;
              }
              default :
              return E_NOK;
 ad4:	81 e0       	ldi	r24, 0x01	; 1
 ad6:	07 c0       	rjmp	.+14     	; 0xae6 <Timer_Init+0x1fc>
            }
        break;
            }
            }
  default:
  return E_NOK;
 ad8:	81 e0       	ldi	r24, 0x01	; 1
 ada:	05 c0       	rjmp	.+10     	; 0xae6 <Timer_Init+0x1fc>
                  TIMSK|=T2_INTERRUPT_NORMAL;

                break;
              }
              default :
              return E_NOK;
 adc:	81 e0       	ldi	r24, 0x01	; 1
 ade:	03 c0       	rjmp	.+6      	; 0xae6 <Timer_Init+0x1fc>
            }
        break;
            }
            }
  default:
  return E_NOK;
 ae0:	81 e0       	ldi	r24, 0x01	; 1
 ae2:	01 c0       	rjmp	.+2      	; 0xae6 <Timer_Init+0x1fc>
                          TIMSK|=T2_INTERRUPT_NORMAL;
                        break;
                      }

              default :
              return E_NOK;
 ae4:	81 e0       	ldi	r24, 0x01	; 1

}
 }

}
}
 ae6:	df 91       	pop	r29
 ae8:	cf 91       	pop	r28
 aea:	08 95       	ret

00000aec <Timer_Start>:
 * Description: This function strats the needed timer.
 *
 */
ERROR_STATUS Timer_Start(uint8_t Timer_CH_NO, uint16_t Timer_Count){
uint8_t Ret;
switch (Timer_CH_NO) {
 aec:	81 30       	cpi	r24, 0x01	; 1
 aee:	09 f4       	brne	.+2      	; 0xaf2 <Timer_Start+0x6>
 af0:	4f c0       	rjmp	.+158    	; 0xb90 <Timer_Start+0xa4>
 af2:	81 30       	cpi	r24, 0x01	; 1
 af4:	20 f0       	brcs	.+8      	; 0xafe <Timer_Start+0x12>
 af6:	82 30       	cpi	r24, 0x02	; 2
 af8:	09 f0       	breq	.+2      	; 0xafc <Timer_Start+0x10>
 afa:	f3 c0       	rjmp	.+486    	; 0xce2 <Timer_Start+0x1f6>
 afc:	97 c0       	rjmp	.+302    	; 0xc2c <Timer_Start+0x140>
case TIMER_CH0:{/***********************************************************************************************************************/
switch(prescaler_value){
 afe:	80 91 7c 00 	lds	r24, 0x007C
 b02:	84 30       	cpi	r24, 0x04	; 4
 b04:	21 f1       	breq	.+72     	; 0xb4e <Timer_Start+0x62>
 b06:	85 30       	cpi	r24, 0x05	; 5
 b08:	30 f4       	brcc	.+12     	; 0xb16 <Timer_Start+0x2a>
 b0a:	81 30       	cpi	r24, 0x01	; 1
 b0c:	51 f0       	breq	.+20     	; 0xb22 <Timer_Start+0x36>
 b0e:	82 30       	cpi	r24, 0x02	; 2
 b10:	09 f0       	breq	.+2      	; 0xb14 <Timer_Start+0x28>
 b12:	e9 c0       	rjmp	.+466    	; 0xce6 <Timer_Start+0x1fa>
 b14:	11 c0       	rjmp	.+34     	; 0xb38 <Timer_Start+0x4c>
 b16:	86 30       	cpi	r24, 0x06	; 6
 b18:	29 f1       	breq	.+74     	; 0xb64 <Timer_Start+0x78>
 b1a:	87 30       	cpi	r24, 0x07	; 7
 b1c:	09 f0       	breq	.+2      	; 0xb20 <Timer_Start+0x34>
 b1e:	e3 c0       	rjmp	.+454    	; 0xce6 <Timer_Start+0x1fa>
 b20:	2c c0       	rjmp	.+88     	; 0xb7a <Timer_Start+0x8e>
case TIMER_PRESCALER_NO :{
if(Timer_Count < MAX0){
 b22:	6f 3f       	cpi	r22, 0xFF	; 255
 b24:	71 05       	cpc	r23, r1
 b26:	08 f0       	brcs	.+2      	; 0xb2a <Timer_Start+0x3e>
 b28:	e0 c0       	rjmp	.+448    	; 0xcea <Timer_Start+0x1fe>
TCCR0 |=TIMER_PRESCALER_NO;
 b2a:	83 b7       	in	r24, 0x33	; 51
 b2c:	81 60       	ori	r24, 0x01	; 1
 b2e:	83 bf       	out	0x33, r24	; 51
TCNT0 =	MAX0 - Timer_Count;
 b30:	60 95       	com	r22
 b32:	62 bf       	out	0x32, r22	; 50
default :
Ret=E_NOK;
break;
}

Ret=E_OK;
 b34:	80 e0       	ldi	r24, 0x00	; 0
 b36:	08 95       	ret
Ret=E_NOK;
}
break;
}
case TIMER_PRESCALER_8 :{
if(Timer_Count < MAX0){
 b38:	6f 3f       	cpi	r22, 0xFF	; 255
 b3a:	71 05       	cpc	r23, r1
 b3c:	08 f0       	brcs	.+2      	; 0xb40 <Timer_Start+0x54>
 b3e:	d7 c0       	rjmp	.+430    	; 0xcee <Timer_Start+0x202>
TCCR0 |=TIMER0_PRESCALER_8_CONFIG;
 b40:	83 b7       	in	r24, 0x33	; 51
 b42:	82 60       	ori	r24, 0x02	; 2
 b44:	83 bf       	out	0x33, r24	; 51
TCNT0 =MAX0 - Timer_Count;
 b46:	60 95       	com	r22
 b48:	62 bf       	out	0x32, r22	; 50
default :
Ret=E_NOK;
break;
}

Ret=E_OK;
 b4a:	80 e0       	ldi	r24, 0x00	; 0
 b4c:	08 95       	ret
Ret=E_NOK;
}
break;
}
case TIMER_PRESCALER_64 :{
if(Timer_Count < MAX0){
 b4e:	6f 3f       	cpi	r22, 0xFF	; 255
 b50:	71 05       	cpc	r23, r1
 b52:	08 f0       	brcs	.+2      	; 0xb56 <Timer_Start+0x6a>
 b54:	ce c0       	rjmp	.+412    	; 0xcf2 <Timer_Start+0x206>
TCCR0 |=TIMER0_PRESCALER_64_CONFIG;
 b56:	83 b7       	in	r24, 0x33	; 51
 b58:	83 60       	ori	r24, 0x03	; 3
 b5a:	83 bf       	out	0x33, r24	; 51
TCNT0 = MAX0 - Timer_Count;
 b5c:	60 95       	com	r22
 b5e:	62 bf       	out	0x32, r22	; 50
default :
Ret=E_NOK;
break;
}

Ret=E_OK;
 b60:	80 e0       	ldi	r24, 0x00	; 0
 b62:	08 95       	ret
Ret=E_NOK;
}
break;
}
case TIMER_PRESCALER_256 :{
if(Timer_Count < MAX0){
 b64:	6f 3f       	cpi	r22, 0xFF	; 255
 b66:	71 05       	cpc	r23, r1
 b68:	08 f0       	brcs	.+2      	; 0xb6c <Timer_Start+0x80>
 b6a:	c5 c0       	rjmp	.+394    	; 0xcf6 <Timer_Start+0x20a>
TCCR0 |=TIMER0_PRESCALER_256_CONFIG;
 b6c:	83 b7       	in	r24, 0x33	; 51
 b6e:	84 60       	ori	r24, 0x04	; 4
 b70:	83 bf       	out	0x33, r24	; 51
TCNT0 =MAX0 - Timer_Count;
 b72:	60 95       	com	r22
 b74:	62 bf       	out	0x32, r22	; 50
default :
Ret=E_NOK;
break;
}

Ret=E_OK;
 b76:	80 e0       	ldi	r24, 0x00	; 0
 b78:	08 95       	ret
Ret=E_NOK;
}
break;
}
case TIMER_PRESCALER_1024 :{
if(Timer_Count < MAX0){
 b7a:	6f 3f       	cpi	r22, 0xFF	; 255
 b7c:	71 05       	cpc	r23, r1
 b7e:	08 f0       	brcs	.+2      	; 0xb82 <Timer_Start+0x96>
 b80:	bc c0       	rjmp	.+376    	; 0xcfa <Timer_Start+0x20e>
TCCR0 |=TIMER0_PRESCALER_1024_CONFIG;
 b82:	83 b7       	in	r24, 0x33	; 51
 b84:	85 60       	ori	r24, 0x05	; 5
 b86:	83 bf       	out	0x33, r24	; 51
TCNT0 =MAX0 - Timer_Count;
 b88:	60 95       	com	r22
 b8a:	62 bf       	out	0x32, r22	; 50
default :
Ret=E_NOK;
break;
}

Ret=E_OK;
 b8c:	80 e0       	ldi	r24, 0x00	; 0
 b8e:	08 95       	ret
break;
}
case TIMER_CH1:{

  switch(prescaler_value){
 b90:	80 91 7c 00 	lds	r24, 0x007C
 b94:	84 30       	cpi	r24, 0x04	; 4
 b96:	31 f1       	breq	.+76     	; 0xbe4 <Timer_Start+0xf8>
 b98:	85 30       	cpi	r24, 0x05	; 5
 b9a:	30 f4       	brcc	.+12     	; 0xba8 <Timer_Start+0xbc>
 b9c:	81 30       	cpi	r24, 0x01	; 1
 b9e:	51 f0       	breq	.+20     	; 0xbb4 <Timer_Start+0xc8>
 ba0:	82 30       	cpi	r24, 0x02	; 2
 ba2:	09 f0       	breq	.+2      	; 0xba6 <Timer_Start+0xba>
 ba4:	ac c0       	rjmp	.+344    	; 0xcfe <Timer_Start+0x212>
 ba6:	12 c0       	rjmp	.+36     	; 0xbcc <Timer_Start+0xe0>
 ba8:	86 30       	cpi	r24, 0x06	; 6
 baa:	41 f1       	breq	.+80     	; 0xbfc <Timer_Start+0x110>
 bac:	87 30       	cpi	r24, 0x07	; 7
 bae:	09 f0       	breq	.+2      	; 0xbb2 <Timer_Start+0xc6>
 bb0:	a6 c0       	rjmp	.+332    	; 0xcfe <Timer_Start+0x212>
 bb2:	30 c0       	rjmp	.+96     	; 0xc14 <Timer_Start+0x128>
  case TIMER_PRESCALER_NO :{
  if(Timer_Count < MAX1){
  TCCR1 |=TIMER_PRESCALER_NO;
 bb4:	8e b5       	in	r24, 0x2e	; 46
 bb6:	9f b5       	in	r25, 0x2f	; 47
 bb8:	81 60       	ori	r24, 0x01	; 1
 bba:	9f bd       	out	0x2f, r25	; 47
 bbc:	8e bd       	out	0x2e, r24	; 46
  TCNT1 =MAX1 - Timer_Count;
 bbe:	70 95       	com	r23
 bc0:	61 95       	neg	r22
 bc2:	7f 4f       	sbci	r23, 0xFF	; 255
 bc4:	7d bd       	out	0x2d, r23	; 45
 bc6:	6c bd       	out	0x2c, r22	; 44
  Ret= E_NOK;
  break;
  }


  Ret= E_OK;
 bc8:	80 e0       	ldi	r24, 0x00	; 0
  TCNT1 =MAX1 - Timer_Count;
  }else
  {
  Ret=E_NOK;
  }
  break;
 bca:	08 95       	ret
  }
  case TIMER_PRESCALER_8 :{
  if(Timer_Count < MAX1){
  TCCR1 |=TIMER1_PRESCALER_8_CONFIG;
 bcc:	8e b5       	in	r24, 0x2e	; 46
 bce:	9f b5       	in	r25, 0x2f	; 47
 bd0:	82 60       	ori	r24, 0x02	; 2
 bd2:	9f bd       	out	0x2f, r25	; 47
 bd4:	8e bd       	out	0x2e, r24	; 46
  TCNT1 =MAX1 - Timer_Count;
 bd6:	70 95       	com	r23
 bd8:	61 95       	neg	r22
 bda:	7f 4f       	sbci	r23, 0xFF	; 255
 bdc:	7d bd       	out	0x2d, r23	; 45
 bde:	6c bd       	out	0x2c, r22	; 44
  Ret= E_NOK;
  break;
  }


  Ret= E_OK;
 be0:	80 e0       	ldi	r24, 0x00	; 0
  TCNT1 =MAX1 - Timer_Count;
  }else
  {
  Ret= E_NOK;
  }
  break;
 be2:	08 95       	ret
  }
  case TIMER_PRESCALER_64 :{
  if(Timer_Count < MAX1){
  TCCR1 |=TIMER1_PRESCALER_64_CONFIG;
 be4:	8e b5       	in	r24, 0x2e	; 46
 be6:	9f b5       	in	r25, 0x2f	; 47
 be8:	83 60       	ori	r24, 0x03	; 3
 bea:	9f bd       	out	0x2f, r25	; 47
 bec:	8e bd       	out	0x2e, r24	; 46
  TCNT1 =MAX1 - Timer_Count;
 bee:	70 95       	com	r23
 bf0:	61 95       	neg	r22
 bf2:	7f 4f       	sbci	r23, 0xFF	; 255
 bf4:	7d bd       	out	0x2d, r23	; 45
 bf6:	6c bd       	out	0x2c, r22	; 44
  Ret= E_NOK;
  break;
  }


  Ret= E_OK;
 bf8:	80 e0       	ldi	r24, 0x00	; 0
  TCNT1 =MAX1 - Timer_Count;
  }else
  {
  Ret= E_NOK;
  }
  break;
 bfa:	08 95       	ret
  }
  case TIMER_PRESCALER_256 :{
  if(Timer_Count < MAX1){
  TCCR1 |=TIMER1_PRESCALER_256_CONFIG;
 bfc:	8e b5       	in	r24, 0x2e	; 46
 bfe:	9f b5       	in	r25, 0x2f	; 47
 c00:	84 60       	ori	r24, 0x04	; 4
 c02:	9f bd       	out	0x2f, r25	; 47
 c04:	8e bd       	out	0x2e, r24	; 46
  TCNT1 =MAX1 - Timer_Count;
 c06:	70 95       	com	r23
 c08:	61 95       	neg	r22
 c0a:	7f 4f       	sbci	r23, 0xFF	; 255
 c0c:	7d bd       	out	0x2d, r23	; 45
 c0e:	6c bd       	out	0x2c, r22	; 44
  Ret= E_NOK;
  break;
  }


  Ret= E_OK;
 c10:	80 e0       	ldi	r24, 0x00	; 0
  }else
  {
  Ret= E_NOK;

  }
  break;
 c12:	08 95       	ret
  }
  case TIMER_PRESCALER_1024 :{
  if(Timer_Count < MAX1){
  TCCR1 |=TIMER1_PRESCALER_1024_CONFIG;
 c14:	8e b5       	in	r24, 0x2e	; 46
 c16:	9f b5       	in	r25, 0x2f	; 47
 c18:	85 60       	ori	r24, 0x05	; 5
 c1a:	9f bd       	out	0x2f, r25	; 47
 c1c:	8e bd       	out	0x2e, r24	; 46
  TCNT1 =MAX1 - Timer_Count;
 c1e:	70 95       	com	r23
 c20:	61 95       	neg	r22
 c22:	7f 4f       	sbci	r23, 0xFF	; 255
 c24:	7d bd       	out	0x2d, r23	; 45
 c26:	6c bd       	out	0x2c, r22	; 44
  Ret= E_NOK;
  break;
  }


  Ret= E_OK;
 c28:	80 e0       	ldi	r24, 0x00	; 0
  }else
  {
  Ret= E_NOK;

  }
  break;
 c2a:	08 95       	ret
	break;
}
case TIMER_CH2:
	{
  
		switch(prescaler_value){
 c2c:	80 91 7c 00 	lds	r24, 0x007C
 c30:	84 30       	cpi	r24, 0x04	; 4
 c32:	79 f1       	breq	.+94     	; 0xc92 <Timer_Start+0x1a6>
 c34:	85 30       	cpi	r24, 0x05	; 5
 c36:	40 f4       	brcc	.+16     	; 0xc48 <Timer_Start+0x15c>
 c38:	82 30       	cpi	r24, 0x02	; 2
 c3a:	c9 f0       	breq	.+50     	; 0xc6e <Timer_Start+0x182>
 c3c:	83 30       	cpi	r24, 0x03	; 3
 c3e:	10 f5       	brcc	.+68     	; 0xc84 <Timer_Start+0x198>
 c40:	81 30       	cpi	r24, 0x01	; 1
 c42:	09 f0       	breq	.+2      	; 0xc46 <Timer_Start+0x15a>
 c44:	5e c0       	rjmp	.+188    	; 0xd02 <Timer_Start+0x216>
 c46:	08 c0       	rjmp	.+16     	; 0xc58 <Timer_Start+0x16c>
 c48:	86 30       	cpi	r24, 0x06	; 6
 c4a:	b9 f1       	breq	.+110    	; 0xcba <Timer_Start+0x1ce>
 c4c:	86 30       	cpi	r24, 0x06	; 6
 c4e:	58 f1       	brcs	.+86     	; 0xca6 <Timer_Start+0x1ba>
 c50:	87 30       	cpi	r24, 0x07	; 7
 c52:	09 f0       	breq	.+2      	; 0xc56 <Timer_Start+0x16a>
 c54:	56 c0       	rjmp	.+172    	; 0xd02 <Timer_Start+0x216>
 c56:	3b c0       	rjmp	.+118    	; 0xcce <Timer_Start+0x1e2>
   
		  case TIMER_PRESCALER_NO :
			{
    
				if(Timer_Count < MAX0){
 c58:	6f 3f       	cpi	r22, 0xFF	; 255
 c5a:	71 05       	cpc	r23, r1
 c5c:	08 f0       	brcs	.+2      	; 0xc60 <Timer_Start+0x174>
 c5e:	53 c0       	rjmp	.+166    	; 0xd06 <Timer_Start+0x21a>
     
			      TCCR2 |= TIMER_PRESCALER_NO;
 c60:	85 b5       	in	r24, 0x25	; 37
 c62:	81 60       	ori	r24, 0x01	; 1
 c64:	85 bd       	out	0x25, r24	; 37
		      
				  TCNT2 = MAX2 - Timer_Count;
 c66:	60 95       	com	r22
 c68:	64 bd       	out	0x24, r22	; 36
  }
  default :
  Ret= E_NOK;

  }
Ret=E_OK;
 c6a:	80 e0       	ldi	r24, 0x00	; 0
 c6c:	08 95       	ret
			break;
			}

case TIMER_PRESCALER_8 :
  {
          if(Timer_Count < MAX0)
 c6e:	6f 3f       	cpi	r22, 0xFF	; 255
 c70:	71 05       	cpc	r23, r1
 c72:	08 f0       	brcs	.+2      	; 0xc76 <Timer_Start+0x18a>
 c74:	4a c0       	rjmp	.+148    	; 0xd0a <Timer_Start+0x21e>
            {
           TCCR2 |=TIMER_PRESCALER_8;
 c76:	85 b5       	in	r24, 0x25	; 37
 c78:	82 60       	ori	r24, 0x02	; 2
 c7a:	85 bd       	out	0x25, r24	; 37
           TCNT2 =MAX2 - Timer_Count;
 c7c:	60 95       	com	r22
 c7e:	64 bd       	out	0x24, r22	; 36
  }
  default :
  Ret= E_NOK;

  }
Ret=E_OK;
 c80:	80 e0       	ldi	r24, 0x00	; 0
 c82:	08 95       	ret
  }
  case TIMER_PRESCALER_32:
  {
    if(Timer_Count < MAX1)
         {
         TCCR2 |=TIMER_PRESCALER_32;
 c84:	85 b5       	in	r24, 0x25	; 37
 c86:	83 60       	ori	r24, 0x03	; 3
 c88:	85 bd       	out	0x25, r24	; 37
         TCNT2 =MAX2 - Timer_Count;
 c8a:	60 95       	com	r22
 c8c:	64 bd       	out	0x24, r22	; 36
  }
  default :
  Ret= E_NOK;

  }
Ret=E_OK;
 c8e:	80 e0       	ldi	r24, 0x00	; 0
        else
        {
    Ret=E_NOK;
  }

    break;
 c90:	08 95       	ret
  }
  case TIMER_PRESCALER_64 :
  {
       if(Timer_Count < MAX2)
 c92:	6f 3f       	cpi	r22, 0xFF	; 255
 c94:	71 05       	cpc	r23, r1
 c96:	d8 f5       	brcc	.+118    	; 0xd0e <Timer_Start+0x222>
       {
       TCCR2 |=TIMER_PRESCALER_64;
 c98:	85 b5       	in	r24, 0x25	; 37
 c9a:	84 60       	ori	r24, 0x04	; 4
 c9c:	85 bd       	out	0x25, r24	; 37
       TCNT2 =MAX2 - Timer_Count;
 c9e:	60 95       	com	r22
 ca0:	64 bd       	out	0x24, r22	; 36
  }
  default :
  Ret= E_NOK;

  }
Ret=E_OK;
 ca2:	80 e0       	ldi	r24, 0x00	; 0
 ca4:	08 95       	ret
  Ret=E_NOK;
  }
  break;
  }
  case TIMER_PRESCALER_128 :{
  if(Timer_Count < MAX2){
 ca6:	6f 3f       	cpi	r22, 0xFF	; 255
 ca8:	71 05       	cpc	r23, r1
 caa:	98 f5       	brcc	.+102    	; 0xd12 <Timer_Start+0x226>
  TCCR2 |= TIMER_PRESCALER_128;
 cac:	85 b5       	in	r24, 0x25	; 37
 cae:	85 60       	ori	r24, 0x05	; 5
 cb0:	85 bd       	out	0x25, r24	; 37
  TCNT2 =MAX2 - Timer_Count;
 cb2:	60 95       	com	r22
 cb4:	64 bd       	out	0x24, r22	; 36
  }
  default :
  Ret= E_NOK;

  }
Ret=E_OK;
 cb6:	80 e0       	ldi	r24, 0x00	; 0
 cb8:	08 95       	ret
  Ret= E_NOK;
    }
  break;
  }
  case TIMER_PRESCALER_256 :{
  if(Timer_Count < MAX2){
 cba:	6f 3f       	cpi	r22, 0xFF	; 255
 cbc:	71 05       	cpc	r23, r1
 cbe:	58 f5       	brcc	.+86     	; 0xd16 <Timer_Start+0x22a>
  TCCR2 |= TIMER_PRESCALER_256;
 cc0:	85 b5       	in	r24, 0x25	; 37
 cc2:	86 60       	ori	r24, 0x06	; 6
 cc4:	85 bd       	out	0x25, r24	; 37
  TCNT2 =MAX2 - Timer_Count;
 cc6:	60 95       	com	r22
 cc8:	64 bd       	out	0x24, r22	; 36
  }
  default :
  Ret= E_NOK;

  }
Ret=E_OK;
 cca:	80 e0       	ldi	r24, 0x00	; 0
 ccc:	08 95       	ret

  }
  break;
  }
  case TIMER_PRESCALER_1024 :{
  if(Timer_Count < MAX2){
 cce:	6f 3f       	cpi	r22, 0xFF	; 255
 cd0:	71 05       	cpc	r23, r1
 cd2:	18 f5       	brcc	.+70     	; 0xd1a <Timer_Start+0x22e>
  TCCR2 |=TIMER_PRESCALER_1024;
 cd4:	85 b5       	in	r24, 0x25	; 37
 cd6:	87 60       	ori	r24, 0x07	; 7
 cd8:	85 bd       	out	0x25, r24	; 37
  TCNT2 =MAX2 - Timer_Count;
 cda:	60 95       	com	r22
 cdc:	64 bd       	out	0x24, r22	; 36
  }
  default :
  Ret= E_NOK;

  }
Ret=E_OK;
 cde:	80 e0       	ldi	r24, 0x00	; 0
 ce0:	08 95       	ret
break;
}
default:
Ret= E_NOK;
 ce2:	81 e0       	ldi	r24, 0x01	; 1
 ce4:	08 95       	ret
default :
Ret=E_NOK;
break;
}

Ret=E_OK;
 ce6:	80 e0       	ldi	r24, 0x00	; 0
 ce8:	08 95       	ret
 cea:	80 e0       	ldi	r24, 0x00	; 0
 cec:	08 95       	ret
 cee:	80 e0       	ldi	r24, 0x00	; 0
 cf0:	08 95       	ret
 cf2:	80 e0       	ldi	r24, 0x00	; 0
 cf4:	08 95       	ret
 cf6:	80 e0       	ldi	r24, 0x00	; 0
 cf8:	08 95       	ret
 cfa:	80 e0       	ldi	r24, 0x00	; 0
 cfc:	08 95       	ret
  Ret= E_NOK;
  break;
  }


  Ret= E_OK;
 cfe:	80 e0       	ldi	r24, 0x00	; 0
 d00:	08 95       	ret
  }
  default :
  Ret= E_NOK;

  }
Ret=E_OK;
 d02:	80 e0       	ldi	r24, 0x00	; 0
 d04:	08 95       	ret
 d06:	80 e0       	ldi	r24, 0x00	; 0
 d08:	08 95       	ret
 d0a:	80 e0       	ldi	r24, 0x00	; 0
 d0c:	08 95       	ret
 d0e:	80 e0       	ldi	r24, 0x00	; 0
 d10:	08 95       	ret
 d12:	80 e0       	ldi	r24, 0x00	; 0
 d14:	08 95       	ret
 d16:	80 e0       	ldi	r24, 0x00	; 0
 d18:	08 95       	ret
 d1a:	80 e0       	ldi	r24, 0x00	; 0
Ret= E_NOK;
break;
}
return Ret;

}
 d1c:	08 95       	ret

00000d1e <Timer_Stop>:
 * Description: This function stops the needed timer.
 *
 */
ERROR_STATUS Timer_Stop(uint8_t Timer_CH_NO)
{uint8_t Ret;
switch (Timer_CH_NO) {
 d1e:	81 30       	cpi	r24, 0x01	; 1
 d20:	51 f0       	breq	.+20     	; 0xd36 <Timer_Stop+0x18>
 d22:	81 30       	cpi	r24, 0x01	; 1
 d24:	18 f0       	brcs	.+6      	; 0xd2c <Timer_Stop+0xe>
 d26:	82 30       	cpi	r24, 0x02	; 2
 d28:	91 f4       	brne	.+36     	; 0xd4e <Timer_Stop+0x30>
 d2a:	0c c0       	rjmp	.+24     	; 0xd44 <Timer_Stop+0x26>
  case TIMER_CH0:
  {
		TCCR0 &=0xF8;
 d2c:	83 b7       	in	r24, 0x33	; 51
 d2e:	88 7f       	andi	r24, 0xF8	; 248
 d30:	83 bf       	out	0x33, r24	; 51
		Ret=E_OK;
 d32:	80 e0       	ldi	r24, 0x00	; 0
		break;
 d34:	08 95       	ret
  }
  case TIMER_CH1:
  {
	     TCCR1 &=0xFFF8;
 d36:	8e b5       	in	r24, 0x2e	; 46
 d38:	9f b5       	in	r25, 0x2f	; 47
 d3a:	88 7f       	andi	r24, 0xF8	; 248
 d3c:	9f bd       	out	0x2f, r25	; 47
 d3e:	8e bd       	out	0x2e, r24	; 46
		 Ret=E_OK;
 d40:	80 e0       	ldi	r24, 0x00	; 0
		 break;
 d42:	08 95       	ret
  }
  case TIMER_CH2:
    {
		 TCCR2 &= 0xF8;
 d44:	85 b5       	in	r24, 0x25	; 37
 d46:	88 7f       	andi	r24, 0xF8	; 248
 d48:	85 bd       	out	0x25, r24	; 37
		 Ret=E_OK;
 d4a:	80 e0       	ldi	r24, 0x00	; 0
		 break;
 d4c:	08 95       	ret
    }
  default :
  Ret=E_NOK;
 d4e:	81 e0       	ldi	r24, 0x01	; 1
  break;
}

return Ret;

}
 d50:	08 95       	ret

00000d52 <Timer_GetStatus>:
 * Description: This function is used to return if the flag of the timer is raised or not.
 *
 */
ERROR_STATUS Timer_GetStatus(uint8_t Timer_CH_NO,uint8_t* Data)
{
  switch (Timer_CH_NO) {
 d52:	81 30       	cpi	r24, 0x01	; 1
 d54:	59 f0       	breq	.+22     	; 0xd6c <Timer_GetStatus+0x1a>
 d56:	81 30       	cpi	r24, 0x01	; 1
 d58:	18 f0       	brcs	.+6      	; 0xd60 <Timer_GetStatus+0xe>
 d5a:	82 30       	cpi	r24, 0x02	; 2
 d5c:	c9 f4       	brne	.+50     	; 0xd90 <Timer_GetStatus+0x3e>
 d5e:	0e c0       	rjmp	.+28     	; 0xd7c <Timer_GetStatus+0x2a>
    case TIMER_CH0:
    {
  *Data =((TIFR>>TOV0)&1);
 d60:	88 b7       	in	r24, 0x38	; 56
 d62:	81 70       	andi	r24, 0x01	; 1
 d64:	fb 01       	movw	r30, r22
 d66:	80 83       	st	Z, r24
    return E_OK;
 d68:	80 e0       	ldi	r24, 0x00	; 0
 d6a:	08 95       	ret
    }
    case TIMER_CH1:
    {
    *Data =((TIFR>>TOV1)&1);
 d6c:	88 b7       	in	r24, 0x38	; 56
 d6e:	86 95       	lsr	r24
 d70:	86 95       	lsr	r24
 d72:	81 70       	andi	r24, 0x01	; 1
 d74:	fb 01       	movw	r30, r22
 d76:	80 83       	st	Z, r24
    return E_OK;
 d78:	80 e0       	ldi	r24, 0x00	; 0
 d7a:	08 95       	ret
    }
     case TIMER_CH2:
      {
  *Data =((TIFR>>TOV2)&1);
 d7c:	88 b7       	in	r24, 0x38	; 56
 d7e:	82 95       	swap	r24
 d80:	86 95       	lsr	r24
 d82:	86 95       	lsr	r24
 d84:	83 70       	andi	r24, 0x03	; 3
 d86:	81 70       	andi	r24, 0x01	; 1
 d88:	fb 01       	movw	r30, r22
 d8a:	80 83       	st	Z, r24
    return E_OK;
 d8c:	80 e0       	ldi	r24, 0x00	; 0
 d8e:	08 95       	ret
      }
    default :
    return E_NOK;
 d90:	81 e0       	ldi	r24, 0x01	; 1
  }
}
 d92:	08 95       	ret

00000d94 <Timer_GetValue>:
 * Return: The error status of the function.
 * Description: This function is used to return the value of the timer.
 *
 */
ERROR_STATUS Timer_GetValue(uint8_t Timer_CH_NO, uint16_t* Data)
{
 d94:	fb 01       	movw	r30, r22
	uint8_t Ret=0;
	switch (Timer_CH_NO) {
 d96:	81 30       	cpi	r24, 0x01	; 1
 d98:	51 f0       	breq	.+20     	; 0xdae <Timer_GetValue+0x1a>
 d9a:	81 30       	cpi	r24, 0x01	; 1
 d9c:	18 f0       	brcs	.+6      	; 0xda4 <Timer_GetValue+0x10>
 d9e:	82 30       	cpi	r24, 0x02	; 2
 da0:	89 f4       	brne	.+34     	; 0xdc4 <Timer_GetValue+0x30>
 da2:	0b c0       	rjmp	.+22     	; 0xdba <Timer_GetValue+0x26>
		case TIMER_CH0:
		{
			*Data =TCNT0;
 da4:	82 b7       	in	r24, 0x32	; 50
 da6:	80 83       	st	Z, r24
 da8:	11 82       	std	Z+1, r1	; 0x01
			Ret= E_OK;
 daa:	80 e0       	ldi	r24, 0x00	; 0
			break;
 dac:	08 95       	ret
		}
		case TIMER_CH1:
		{
			*Data =TCNT1;
 dae:	8c b5       	in	r24, 0x2c	; 44
 db0:	9d b5       	in	r25, 0x2d	; 45
 db2:	91 83       	std	Z+1, r25	; 0x01
 db4:	80 83       	st	Z, r24
			Ret= E_OK;
 db6:	80 e0       	ldi	r24, 0x00	; 0
			break;
 db8:	08 95       	ret
		}
		case TIMER_CH2:
		{
			*Data =TCNT2;
 dba:	84 b5       	in	r24, 0x24	; 36
 dbc:	80 83       	st	Z, r24
 dbe:	11 82       	std	Z+1, r1	; 0x01
			Ret = E_OK;
 dc0:	80 e0       	ldi	r24, 0x00	; 0
			break;
 dc2:	08 95       	ret
		}
		default :
		Ret= E_NOK;
 dc4:	81 e0       	ldi	r24, 0x01	; 1
		break;
	}
return Ret;

}
 dc6:	08 95       	ret

00000dc8 <TMU_Init>:
uint8_t u8_FUN_index=0;
Buffer_Request Buffer_Array[Buffer_Size];
volatile uint16_t u16Excution_to_be_done=0;

ERROR_STATUS TMU_Init (const TMU_ConfigType * ConfigPtr )
{uint8_t u8_channel_ID=ConfigPtr->u8_Timer_channel;
 dc8:	0f 93       	push	r16
 dca:	1f 93       	push	r17
 dcc:	cf 93       	push	r28
 dce:	df 93       	push	r29
 dd0:	ec 01       	movw	r28, r24
 dd2:	19 81       	ldd	r17, Y+1	; 0x01
uint8_t ret=E_OK;
/*************************************************************************/
/*			Intializ the required timer identified by the user			 */
/************************************************************************/
u8_Is_Intialized++;
 dd4:	80 91 80 00 	lds	r24, 0x0080
 dd8:	8f 5f       	subi	r24, 0xFF	; 255
 dda:	80 93 80 00 	sts	0x0080, r24
switch(u8_channel_ID)
 dde:	11 23       	and	r17, r17
 de0:	19 f0       	breq	.+6      	; 0xde8 <TMU_Init+0x20>
 de2:	12 30       	cpi	r17, 0x02	; 2
 de4:	89 f4       	brne	.+34     	; 0xe08 <TMU_Init+0x40>
 de6:	08 c0       	rjmp	.+16     	; 0xdf8 <TMU_Init+0x30>
{
	case TIMER_CH0:
			G_interrupt_Enable();
 de8:	0e 94 28 01 	call	0x250	; 0x250 <G_interrupt_Enable>
			Timer_Init(&Timer_Configuration0);
 dec:	8e e6       	ldi	r24, 0x6E	; 110
 dee:	90 e0       	ldi	r25, 0x00	; 0
 df0:	0e 94 75 04 	call	0x8ea	; 0x8ea <Timer_Init>
Buffer_Request Buffer_Array[Buffer_Size];
volatile uint16_t u16Excution_to_be_done=0;

ERROR_STATUS TMU_Init (const TMU_ConfigType * ConfigPtr )
{uint8_t u8_channel_ID=ConfigPtr->u8_Timer_channel;
uint8_t ret=E_OK;
 df4:	00 e0       	ldi	r16, 0x00	; 0
switch(u8_channel_ID)
{
	case TIMER_CH0:
			G_interrupt_Enable();
			Timer_Init(&Timer_Configuration0);
				break;
 df6:	09 c0       	rjmp	.+18     	; 0xe0a <TMU_Init+0x42>
	case TIMER_CH2:
		G_interrupt_Enable();
 df8:	0e 94 28 01 	call	0x250	; 0x250 <G_interrupt_Enable>
		ret=Timer_Init(&Timer_Configuration2);
 dfc:	84 e7       	ldi	r24, 0x74	; 116
 dfe:	90 e0       	ldi	r25, 0x00	; 0
 e00:	0e 94 75 04 	call	0x8ea	; 0x8ea <Timer_Init>
 e04:	08 2f       	mov	r16, r24
			break;
 e06:	01 c0       	rjmp	.+2      	; 0xe0a <TMU_Init+0x42>
	default:
			ret=E_NOK;
 e08:	01 e0       	ldi	r16, 0x01	; 1

/*************************************************************************/
/*Intializ the required timer identified by the user using required prescaler  */
/************************************************************************/

switch(ConfigPtr->u8_resolution)
 e0a:	88 81       	ld	r24, Y
 e0c:	81 30       	cpi	r24, 0x01	; 1
 e0e:	89 f4       	brne	.+34     	; 0xe32 <TMU_Init+0x6a>
{
	case TIMER_RESOLUTION_1_MS:
	{
		switch(u8_channel_ID)
 e10:	11 23       	and	r17, r17
 e12:	19 f0       	breq	.+6      	; 0xe1a <TMU_Init+0x52>
 e14:	12 30       	cpi	r17, 0x02	; 2
 e16:	79 f4       	brne	.+30     	; 0xe36 <TMU_Init+0x6e>
 e18:	06 c0       	rjmp	.+12     	; 0xe26 <TMU_Init+0x5e>
		{
			case TIMER_CH0 :
				Timer_Start(TIMER_CH0,NUM_OF_TICKS_FOR_1_MS);
 e1a:	80 e0       	ldi	r24, 0x00	; 0
 e1c:	6e e0       	ldi	r22, 0x0E	; 14
 e1e:	70 e0       	ldi	r23, 0x00	; 0
 e20:	0e 94 76 05 	call	0xaec	; 0xaec <Timer_Start>
					break;
 e24:	09 c0       	rjmp	.+18     	; 0xe38 <TMU_Init+0x70>
			case TIMER_CH2 :
				Timer_Start(TIMER_CH2,NUM_OF_TICKS_FOR_1_MS);
 e26:	82 e0       	ldi	r24, 0x02	; 2
 e28:	6e e0       	ldi	r22, 0x0E	; 14
 e2a:	70 e0       	ldi	r23, 0x00	; 0
 e2c:	0e 94 76 05 	call	0xaec	; 0xaec <Timer_Start>
					break;
 e30:	03 c0       	rjmp	.+6      	; 0xe38 <TMU_Init+0x70>
	}	
	
	
	
	default:
	ret=E_NOK;
 e32:	01 e0       	ldi	r16, 0x01	; 1
 e34:	01 c0       	rjmp	.+2      	; 0xe38 <TMU_Init+0x70>
					break;
			case TIMER_CH2 :
				Timer_Start(TIMER_CH2,NUM_OF_TICKS_FOR_1_MS);
					break;
			default:
				ret=E_NOK;
 e36:	01 e0       	ldi	r16, 0x01	; 1

/****************************************************************************/
/*      Deal with Errors  to be returned									*/
/***************************************************************************/
return ret;
}
 e38:	80 2f       	mov	r24, r16
 e3a:	df 91       	pop	r29
 e3c:	cf 91       	pop	r28
 e3e:	1f 91       	pop	r17
 e40:	0f 91       	pop	r16
 e42:	08 95       	ret

00000e44 <TMU_DeInit>:
/************************************************************************************************/
	
	
	
return ret;	
}
 e44:	80 e0       	ldi	r24, 0x00	; 0
 e46:	08 95       	ret

00000e48 <TMU_Start_Timer>:

ERROR_STATUS TMU_Start_Timer(ptr_to_Fun Function_Consumer,uint8_t  u8_Preodicity,uint8_t u8_function_index,uint16_t u16_Time_delay)
{uint8_t ret=E_OK;
 e48:	dc 01       	movw	r26, r24

	and provide the request to request buffer (ptr_to_func,delay) Dispatcher with the call back function needed(consumer)

	and make sure this function must not be excuted unless Init happened and De_init not happened
	*/
	if(u8_Is_Intialized == 1)
 e4a:	80 91 80 00 	lds	r24, 0x0080
 e4e:	81 30       	cpi	r24, 0x01	; 1
 e50:	99 f4       	brne	.+38     	; 0xe78 <TMU_Start_Timer+0x30>
	{
		
		(Buffer_Array[u8_function_index]).Fuction_consumer=Function_Consumer;
 e52:	50 e0       	ldi	r21, 0x00	; 0
 e54:	ca 01       	movw	r24, r20
 e56:	88 0f       	add	r24, r24
 e58:	99 1f       	adc	r25, r25
 e5a:	48 0f       	add	r20, r24
 e5c:	59 1f       	adc	r21, r25
 e5e:	fa 01       	movw	r30, r20
 e60:	ee 0f       	add	r30, r30
 e62:	ff 1f       	adc	r31, r31
 e64:	e9 55       	subi	r30, 0x59	; 89
 e66:	ff 4f       	sbci	r31, 0xFF	; 255
 e68:	b1 83       	std	Z+1, r27	; 0x01
 e6a:	a0 83       	st	Z, r26
		(Buffer_Array[u8_function_index]).preodic=u8_Preodicity;
 e6c:	65 83       	std	Z+5, r22	; 0x05
		(Buffer_Array[u8_function_index]).u16_time_delay=u16_Time_delay;
 e6e:	34 83       	std	Z+4, r19	; 0x04
 e70:	23 83       	std	Z+3, r18	; 0x03
		(Buffer_Array[u8_function_index]).u8_flag_is_stopped=0;
 e72:	12 82       	std	Z+2, r1	; 0x02
	
return ret;	
}

ERROR_STATUS TMU_Start_Timer(ptr_to_Fun Function_Consumer,uint8_t  u8_Preodicity,uint8_t u8_function_index,uint16_t u16_Time_delay)
{uint8_t ret=E_OK;
 e74:	80 e0       	ldi	r24, 0x00	; 0
 e76:	08 95       	ret
		(Buffer_Array[u8_function_index]).u8_flag_is_stopped=0;
		
		
	}
	else{
		ret=E_NOK;
 e78:	81 e0       	ldi	r24, 0x01	; 1
	}

	return ret;
}
 e7a:	08 95       	ret

00000e7c <TMU_Main_Function>:

ERROR_STATUS TMU_Main_Function(void)
{	uint8_t ret=E_OK;
 e7c:	cf 93       	push	r28
	uint8_t status_flag=0;
	uint8_t preodic_status_flag=0;
	uint16_t u16_Time_needed=0;
	ptr_to_Fun Excuted=((Buffer_Array[u8_FUN_index]).Fuction_consumer);
 e7e:	80 91 7f 00 	lds	r24, 0x007F
 e82:	90 e0       	ldi	r25, 0x00	; 0
 e84:	fc 01       	movw	r30, r24
 e86:	ee 0f       	add	r30, r30
 e88:	ff 1f       	adc	r31, r31
 e8a:	8e 0f       	add	r24, r30
 e8c:	9f 1f       	adc	r25, r31
 e8e:	fc 01       	movw	r30, r24
 e90:	ee 0f       	add	r30, r30
 e92:	ff 1f       	adc	r31, r31
 e94:	e9 55       	subi	r30, 0x59	; 89
 e96:	ff 4f       	sbci	r31, 0xFF	; 255
 e98:	40 81       	ld	r20, Z
 e9a:	51 81       	ldd	r21, Z+1	; 0x01
	
	u16_Time_needed =(Buffer_Array[u8_FUN_index]).u16_time_delay;
 e9c:	83 81       	ldd	r24, Z+3	; 0x03
 e9e:	94 81       	ldd	r25, Z+4	; 0x04
	status_flag =(Buffer_Array[u8_FUN_index]).u8_flag_is_stopped;
	preodic_status_flag=(Buffer_Array[u8_FUN_index]).preodic;
 ea0:	c5 81       	ldd	r28, Z+5	; 0x05
if(status_flag==1){ret=E_OK;}
 ea2:	22 81       	ldd	r18, Z+2	; 0x02
 ea4:	21 30       	cpi	r18, 0x01	; 1
 ea6:	a1 f0       	breq	.+40     	; 0xed0 <TMU_Main_Function+0x54>
else{
/*	u16Excution_to_be_done=100;  ISR*/
	if(u16_Time_needed == u16Excution_to_be_done )
 ea8:	20 91 7d 00 	lds	r18, 0x007D
 eac:	30 91 7e 00 	lds	r19, 0x007E
 eb0:	82 17       	cp	r24, r18
 eb2:	93 07       	cpc	r25, r19
 eb4:	31 f4       	brne	.+12     	; 0xec2 <TMU_Main_Function+0x46>
	{
		Excuted();
 eb6:	fa 01       	movw	r30, r20
 eb8:	09 95       	icall
	
		u16Excution_to_be_done=0;
 eba:	10 92 7e 00 	sts	0x007E, r1
 ebe:	10 92 7d 00 	sts	0x007D, r1
	}

	if(preodic_status_flag==0){
 ec2:	cc 23       	and	r28, r28
 ec4:	29 f4       	brne	.+10     	; 0xed0 <TMU_Main_Function+0x54>
		u8_FUN_index++;
 ec6:	80 91 7f 00 	lds	r24, 0x007F
 eca:	8f 5f       	subi	r24, 0xFF	; 255
 ecc:	80 93 7f 00 	sts	0x007F, r24
	}
}
return ret;


}
 ed0:	80 e0       	ldi	r24, 0x00	; 0
 ed2:	cf 91       	pop	r28
 ed4:	08 95       	ret

00000ed6 <TMU_Stop_Timer>:


ERROR_STATUS TMU_Stop_Timer(uint8_t u8_function_index)
{
	(Buffer_Array[u8_function_index]).u8_flag_is_stopped=1;
 ed6:	90 e0       	ldi	r25, 0x00	; 0
 ed8:	fc 01       	movw	r30, r24
 eda:	ee 0f       	add	r30, r30
 edc:	ff 1f       	adc	r31, r31
 ede:	8e 0f       	add	r24, r30
 ee0:	9f 1f       	adc	r25, r31
 ee2:	fc 01       	movw	r30, r24
 ee4:	ee 0f       	add	r30, r30
 ee6:	ff 1f       	adc	r31, r31
 ee8:	e9 55       	subi	r30, 0x59	; 89
 eea:	ff 4f       	sbci	r31, 0xFF	; 255
 eec:	81 e0       	ldi	r24, 0x01	; 1
 eee:	82 83       	std	Z+2, r24	; 0x02
}
 ef0:	08 95       	ret

00000ef2 <Tmu_Fun>:

void Tmu_Fun(void){DIO_Toggle(GPIOC,BIT4);}
 ef2:	82 e0       	ldi	r24, 0x02	; 2
 ef4:	60 e1       	ldi	r22, 0x10	; 16
 ef6:	0e 94 09 01 	call	0x212	; 0x212 <DIO_Toggle>
 efa:	08 95       	ret

00000efc <Tmu_For>:
void Tmu_For(void){DIO_Toggle(GPIOB,BIT4);}
 efc:	81 e0       	ldi	r24, 0x01	; 1
 efe:	60 e1       	ldi	r22, 0x10	; 16
 f00:	0e 94 09 01 	call	0x212	; 0x212 <DIO_Toggle>
 f04:	08 95       	ret

00000f06 <Tmu_excute>:
void Tmu_excute(void){PORTA_DATA ^=0xff;}
 f06:	8b b3       	in	r24, 0x1b	; 27
 f08:	80 95       	com	r24
 f0a:	8b bb       	out	0x1b, r24	; 27
 f0c:	08 95       	ret

00000f0e <timer_interrupt>:


void timer_interrupt(void){
	u16Excution_to_be_done+=1;
 f0e:	80 91 7d 00 	lds	r24, 0x007D
 f12:	90 91 7e 00 	lds	r25, 0x007E
 f16:	01 96       	adiw	r24, 0x01	; 1
 f18:	90 93 7e 00 	sts	0x007E, r25
 f1c:	80 93 7d 00 	sts	0x007D, r24
	UDR+=1;
 f20:	8c b1       	in	r24, 0x0c	; 12
 f22:	8f 5f       	subi	r24, 0xFF	; 255
 f24:	8c b9       	out	0x0c, r24	; 12
	Timer_Start(TIMER_CH0,14);
 f26:	80 e0       	ldi	r24, 0x00	; 0
 f28:	6e e0       	ldi	r22, 0x0E	; 14
 f2a:	70 e0       	ldi	r23, 0x00	; 0
 f2c:	0e 94 76 05 	call	0xaec	; 0xaec <Timer_Start>
//TCNT0=15;
 f30:	08 95       	ret

00000f32 <_exit>:
 f32:	f8 94       	cli

00000f34 <__stop_program>:
 f34:	ff cf       	rjmp	.-2      	; 0xf34 <__stop_program>
